(lp0
(lp1
VFINAL DIAGNOSIS\u000a\u000a\u000a\u000aA.  BREAST FNA BIOPSY, LEFT:\u000a\u000a\u000a\u000aSPECIMEN ADEQUACY:\u000a\u000aEVALUATION LIMITED BY SCANT CELLULARITY.\u000a\u000a\u000a\u000aINTERPRETATION:\u000a\u000aATYPICAL.\u000a\u000a\u000a\u000aDIAGNOSIS:\u000a\u000a- PROLIFERATIVE DUCTAL EPITHELIUM WITH MILD NUCLEAR ATYPIA (SEE NOTE).\u000a\u000a\u000a\u000aNOTE: THIS HYPOCELLULAR SMEAR SHOWS SHEETS OF DUCTAL CELLS WITH NUCLEAR\u000a\u000aENLARGEMENT BUT ONLY MILD NUCLEAR IRREGULARITIES AND OVERLAPPING. MYOEPITHELIAL\u000a\u000aCELLS ARE SCANT BUT PRESENT. WITHIN THE SHEETS, THERE ARE SCATTERED PUNCHED OUT\u000a\u000aSPACES SURROUNDED BY DUCTAL CELLS. A STROMAL COMPONENT IS NOT IDENTIFIED.\u000a\u000aOVERALL, THE CYTOMORPHOLOGIC FEATUERS ARE ATYPICAL AND A LOW-GRADE IN SITU\u000a\u000aCOMPONENT CANNOT BE RULED OUT. CLINICAL AND RADIOLOGIC CORRELATION IS REQUIRED\u000a\u000aFOR A MORE DEFINITIVE DIAGNOSIS.\u000a\u000a\u000a\u000a\u000a\u000a\u000a\u000aELECTRONICALLY SIGNED OUT BY:  IVAN A CHEBIB MD\u000a\u000a\u000a\u000aCAITLIN ENO, CT(ASCP)\u000a\u000a\u000a\u000aBY HIS/HER SIGNATURE ABOVE, THE PATHOLOGIST LISTED AS MAKING THE FINAL DIAGNOSIS\u000a\u000aCERTIFIES THAT HE/SHE HAS PERSONALLY REVIEWED THIS CASE AND CONFIRMED OR\u000a\u000aCORRECTED THE DIAGNOSIS.\u000a\u000a\u000a\u000a\u000a\u000a\u000a\u000a\u000a\u000aCLINICAL HISTORY\u000a\u000aLEFT BREAST NODULE FEELS LIKE FIBROADENOMA\u000a\u000a\u000a\u000a\u000a\u000a\u000a\u000aSPECIMEN SOURCE\u000a\u000aA: BREAST FNA BIOPSY, LEFT\u000a\u000a\u000a\u000a
p2
aVB
p3
aa(lp4
VFINAL DIAGNOSIS\u000a\u000a\u000a\u000aA.  BREAST FNA BIOPSY, LEFT:\u000a\u000a\u000a\u000aSPECIMEN ADEQUACY:\u000a\u000aEVALUATION LIMITED BY SCANT CELLULARITY.\u000a\u000a\u000a\u000aINTERPRETATION:\u000a\u000aATYPICAL.\u000a\u000a\u000a\u000aDIAGNOSIS:\u000a\u000a- PROLIFERATIVE DUCTAL EPITHELIUM WITH MILD NUCLEAR ATYPIA (SEE NOTE).\u000a\u000a\u000a\u000aNOTE: THIS HYPOCELLULAR SMEAR SHOWS SHEETS OF DUCTAL CELLS WITH NUCLEAR\u000a\u000aENLARGEMENT BUT ONLY MILD NUCLEAR IRREGULARITIES AND OVERLAPPING. MYOEPITHELIAL\u000a\u000aCELLS ARE SCANT BUT PRESENT. WITHIN THE SHEETS, THERE ARE SCATTERED PUNCHED OUT\u000a\u000aSPACES SURROUNDED BY DUCTAL CELLS. A STROMAL COMPONENT IS NOT IDENTIFIED.\u000a\u000aOVERALL, THE CYTOMORPHOLOGIC FEATUERS ARE ATYPICAL AND A LOW-GRADE IN SITU\u000a\u000aCOMPONENT CANNOT BE RULED OUT. CLINICAL AND RADIOLOGIC CORRELATION IS REQUIRED\u000a\u000aFOR A MORE DEFINITIVE DIAGNOSIS.\u000a\u000a\u000a\u000a\u000a\u000a\u000a\u000aELECTRONICALLY SIGNED OUT BY:  IVAN A CHEBIB MD\u000a\u000a\u000a\u000aCAITLIN ENO, CT(ASCP)\u000a\u000a\u000a\u000aBY HIS/HER SIGNATURE ABOVE, THE PATHOLOGIST LISTED AS MAKING THE FINAL DIAGNOSIS\u000a\u000aCERTIFIES THAT HE/SHE HAS PERSONALLY REVIEWED THIS CASE AND CONFIRMED OR\u000a\u000aCORRECTED THE DIAGNOSIS.\u000a\u000a\u000a\u000a\u000a\u000a\u000a\u000a\u000a\u000aCLINICAL HISTORY\u000a\u000aLEFT BREAST NODULE FEELS LIKE FIBROADENOMA\u000a\u000a\u000a\u000a\u000a\u000a\u000a\u000aSPECIMEN SOURCE\u000a\u000aA: BREAST FNA BIOPSY, LEFT\u000a\u000a\u000a\u000a
p5
ag3
aa(lp6
VFINAL DIAGNOSIS\u000a\u000a\u000a\u000aA.  BREAST FNA BIOPSY, LEFT:\u000a\u000a\u000a\u000aSPECIMEN ADEQUACY:\u000a\u000aSATISFACTORY FOR EVALUATION.\u000a\u000a\u000a\u000aINTERPRETATION:\u000a\u000aATYPICAL.\u000a\u000a\u000a\u000aDIAGNOSIS:\u000a\u000a- PROLIFERATIVE BREAST DISEASE WITH ATYPIA (SEE NOTE).\u000a\u000a\u000a\u000aNOTE: SMEARS SHOW A CELLULAR POPULATION OF COHESIVE DUCTAL CELLS WITH\u000a\u000aMYOEPITHELIAL CELLS. THE GROUPS SHOW CROWDED DUCTAL EPITHELIAL CELLS WITH\u000a\u000aNUCLEAR ENLARGEMENT, OVERLAPPING, AND IN AREAS PUNCHED OUT SPACES. THERE ARE\u000a\u000aRARE MITOTIC FIGURES. THESE CYTOMORPHOLOGIC FEATURES ARE ATYPICAL. CLINICAL AND\u000a\u000aRADIOLOGIC CORRELATION IS REQUIRED FOR A MORE DEFINITIVE DIAGNOSIS.\u000a\u000a\u000a\u000a\u000a\u000a\u000a\u000aELECTRONICALLY SIGNED OUT BY:  IVAN A CHEBIB MD\u000a\u000a\u000a\u000aMELISSA M. RING CT (ASCP) MB\u000a\u000a\u000a\u000aBY HIS/HER SIGNATURE ABOVE, THE PATHOLOGIST LISTED AS MAKING THE FINAL DIAGNOSIS\u000a\u000aCERTIFIES THAT HE/SHE HAS PERSONALLY REVIEWED THIS CASE AND CONFIRMED OR\u000a\u000aCORRECTED THE DIAGNOSIS.\u000a\u000a\u000a\u000a\u000a\u000a\u000a\u000a\u000a\u000aPROCEDURES/ADDENDA\u000a\u000a\u000a\u000aRAPID INTERPRETATION\u000a\u000aORDERED DATE: 7/8/2015\u000a\u000a\u000a\u000aA. BREAST FNA BIOPSY, LEFT:\u000a\u000aFNA RAPID INTERPRETATION:\u000a\u000a\u000a\u000aGYNECOMASTIA\u000a\u000a\u000a\u000a\u000a\u000a***ELECTRONICALLY SIGNED OUT BY:  MARTHA BISHOP PITMAN MD ON 7/9/2015 14:04***\u000a\u000a\u000a\u000aPATIENT EVALUATION AND MANAGEMENT (WITH INTERPRETATION)\u000a\u000aORDERED DATE: 7/9/2015\u000a\u000a\u000a\u000aCHIEF COMPLAINT: THIS 63 YEAR OLD MALE WAS REFERRED TO THE PATHOLOGY FINE NEEDLE\u000a\u000aASPIRATION BIOPSY SERVICE BY KEVIN HUGHES, MD FOR CONSULTATION AND DIAGNOSIS OF\u000a\u000aA MASS IN THE LEFT BREAST.\u000a\u000a\u000a\u000aCLINICAL HISTORY:  RIGHT BREAST GYNECOMASTIA WITH EXCISION IN 2013.\u000a\u000a\u000a\u000aPHYSICAL EXAM:  THE LEFT BREAST SHOWED A 1.5 CM TENDER, ILL-DEFINED, ROUND, SOFT\u000a\u000aAND MOBILE SUBAREOLAR TISSUE ASSOCIATED WITH FLATTENING OF THE NIPPLE.\u000a\u000a\u000a\u000aULTRASOUND WAS USED TO EVALUATE THE TISSUE AND SHOWED HOMOGENEOUS SOFT TISSUE\u000a\u000aWITH NO DISCRETE MASS. A SMALL SUBCENTIMETER CYST WAS PRESENT.\u000a\u000a\u000a\u000aASSESSMENT:  BASED ON THE CLINICAL HISTORY AND PHYSICAL EXAMINATION, AN FNAB IS\u000a\u000aWARRANTED.\u000a\u000a\u000a\u000aPROCEDURE: THE PROCEDURE AND POTENTIAL COMPLICATIONS WERE EXPLAINED TO THE\u000a\u000aPATIENT, WHO UNDERSTOOD THE PURPOSE, RISKS, AND BENEFITS OF THE PROCEDURE.  THE\u000a\u000aPATIENT CONFIRMED NAME, DATE OF BIRTH, LATERALITY, AND LESION TO BE ASPIRATED.\u000a\u000aWRITTEN CONSENT WAS OBTAINED.\u000a\u000a\u000a\u000aTHE BIOPSY PROCEDURE WAS PERFORMED BY PALPATION.\u000a\u000a\u000a\u000a3 ASPIRATES WERE PERFORMED USING 23 GAUGE NEEDLES WITH LOCAL ANESTHESIA AND\u000a\u000aWITHOUT COMPLICATIONS.\u000a\u000a3 SLIDES WERE STAINED FOR IMMEDIATE EVALUATION. ADDITIONAL TISSUE WAS SUBMITTED\u000a\u000aFOR FURTHER EVALUATION.\u000a\u000a\u000a\u000aTHE PROCEDURE WAS PERFORMED BY: MARTHA PITMAN, M.D. AND LIENA ZHAO, M.D.\u000a\u000a\u000a\u000aDISPOSITION: THE IMMEDIATE INTERPRETATION FINDINGS WERE DISCUSSED WITH THE\u000a\u000aPATIENT. KEVIN HUGHES, MD WAS NOTIFIED OF THE PRELIMINARY RESULTS BY PERSONAL\u000a\u000aCOMMUNICATION AT 4:25 P.M.\u000a\u000a\u000a\u000a\u000a\u000aTHE SIGNING PATHOLOGIST ATTESTS THAT HE/SHE PERFORMED THE PROCEDURE OR, IF\u000a\u000aPERFORMED BY A RESIDENT OR FELLOW, DIRECTED AND SUPERVISED THE FNA PROCEDURE AND\u000a\u000aWAS IMMEDIATELY AVAILABLE TO FURTHER ASSIST THE RESIDENT/FELLOW BEFORE, DURING\u000a\u000aAND AFTER THE PROCEDURE, AND HAS REVIEWED AND CONFIRMED THE INTERPRETATION OF\u000a\u000aSLIDES STAINED FOR IMMEDIATE EVALUATION.\u000a\u000a\u000a\u000a\u000a\u000a\u000a\u000a***ELECTRONICALLY SIGNED OUT BY:  MARTHA BISHOP PITMAN MD ON 7/9/2015 14:08***\u000a\u000a\u000a\u000aCLINICAL HISTORY\u000a\u000aHISTORY OF GYNECOMASTIA IN RIGHT BREAST, NOW WITH LEFT BREAST MASS\u000a\u000a\u000a\u000a\u000a\u000a\u000a\u000aSPECIMEN SOURCE\u000a\u000aA: BREAST FNA BIOPSY, LEFT\u000a\u000a\u000a\u000a
p7
ag3
aa(lp8
VFINAL DIAGNOSIS\u000a\u000a\u000a\u000aA.  BREAST FNA BIOPSY, LEFT:\u000a\u000a\u000a\u000aSPECIMEN ADEQUACY:\u000a\u000aSATISFACTORY FOR EVALUATION.\u000a\u000a\u000a\u000aINTERPRETATION:\u000a\u000aATYPICAL.\u000a\u000a\u000a\u000aDIAGNOSIS:\u000a\u000aFIBROADIPOSE TISSUE AND RARE SINGLE CLUSTER OF MILDLY ATYPICAL EPITHELIOID CELLS\u000a\u000aWITHIN FAT. SEE NOTE.\u000a\u000a\u000a\u000aNOTE: THE SPECIMEN CONSISTS PREDOMINANTLY OF FIBROADIPOSE TISSUE.  THERE IS A\u000a\u000aSINGLE CLUSTER OF MILDLY ATYPICAL EPITHELIOID CELLS WITHIN ONE FRAGMENT OF\u000a\u000aADIPOSE TISSUE.  THE CELLS ARE SUGGESTIVE OF DUCTAL CELLS, BUT THE SIGNIFICANCE\u000a\u000aOF THIS FINDING IS UNCERTAIN.\u000a\u000a\u000a\u000a\u000a\u000a\u000a\u000aELECTRONICALLY SIGNED OUT BY:  WILLIAM C FAQUIN MD, PHD\u000a\u000a\u000a\u000aHEATHER GRANT SMITH, CT(ASCP)\u000a\u000a\u000a\u000aBY HIS/HER SIGNATURE ABOVE, THE PATHOLOGIST LISTED AS MAKING THE FINAL DIAGNOSIS\u000a\u000aCERTIFIES THAT HE/SHE HAS PERSONALLY REVIEWED THIS CASE AND CONFIRMED OR\u000a\u000aCORRECTED THE DIAGNOSIS.\u000a\u000a\u000a\u000a\u000a\u000a\u000a\u000a\u000a\u000aCLINICAL HISTORY\u000a\u000aHISTORY OF LEFT CANCER, LUMP IN SCAR LIKELY BENIGN, LIKELY FAT NECROSIS.\u000a\u000a\u000a\u000a\u000a\u000a\u000a\u000aSPECIMEN SOURCE\u000a\u000aA: BREAST FNA BIOPSY, LEFT\u000a\u000a\u000a\u000a
p9
ag3
aa(lp10
VFINAL DIAGNOSIS\u000a\u000a\u000a\u000aA.  BREAST FNA BIOPSY, LEFT:\u000a\u000a\u000a\u000aSPECIMEN ADEQUACY:\u000a\u000aSATISFACTORY FOR EVALUATION.\u000a\u000a\u000a\u000aINTERPRETATION:\u000a\u000aATYPICAL.\u000a\u000a\u000a\u000aDIAGNOSIS:\u000a\u000aFIBROADIPOSE TISSUE AND RARE SINGLE CLUSTER OF MILDLY ATYPICAL EPITHELIOID CELLS\u000a\u000aWITHIN FAT. SEE NOTE.\u000a\u000a\u000a\u000aNOTE: THE SPECIMEN CONSISTS PREDOMINANTLY OF FIBROADIPOSE TISSUE.  THERE IS A\u000a\u000aSINGLE CLUSTER OF MILDLY ATYPICAL EPITHELIOID CELLS WITHIN ONE FRAGMENT OF\u000a\u000aADIPOSE TISSUE.  THE CELLS ARE SUGGESTIVE OF DUCTAL CELLS, BUT THE SIGNIFICANCE\u000a\u000aOF THIS FINDING IS UNCERTAIN.\u000a\u000a\u000a\u000a\u000a\u000a\u000a\u000aELECTRONICALLY SIGNED OUT BY:  WILLIAM C FAQUIN MD, PHD\u000a\u000a\u000a\u000aHEATHER GRANT SMITH, CT(ASCP)\u000a\u000a\u000a\u000aBY HIS/HER SIGNATURE ABOVE, THE PATHOLOGIST LISTED AS MAKING THE FINAL DIAGNOSIS\u000a\u000aCERTIFIES THAT HE/SHE HAS PERSONALLY REVIEWED THIS CASE AND CONFIRMED OR\u000a\u000aCORRECTED THE DIAGNOSIS.\u000a\u000a\u000a\u000a\u000a\u000a\u000a\u000a\u000a\u000aCLINICAL HISTORY\u000a\u000aHISTORY OF LEFT CANCER, LUMP IN SCAR LIKELY BENIGN, LIKELY FAT NECROSIS.\u000a\u000a\u000a\u000a\u000a\u000a\u000a\u000aSPECIMEN SOURCE\u000a\u000aA: BREAST FNA BIOPSY, LEFT\u000a\u000a\u000a\u000a
p11
ag3
aa(lp12
VFINAL DIAGNOSIS\u000a\u000aCERTIFIES THAT HE/SHE HAS PERSONALLY REVIEWED THIS CASE AND CONFIRMED OR\u000a\u000aCORRECTED THE DIAGNOSIS.\u000a\u000a\u000a\u000a\u000a\u000aCLINICAL HISTORY\u000a\u000a30 Y/O WITH HETEROGENOUS LEFT BREAST MASS AT 11:00 3CM FROM NIPPLE.  ?\u000a\u000aFIBROADENOMA VS OTHER.\u000a\u000a\u000a\u000aSPECIMENS SUBMITTED:\u000a\u000aA: BREAST CORE BIOPSY, LEFT 11:00, 3 CM FROM NIPPLE\u000a\u000a\u000a\u000a
p13
ag3
aa(lp14
VFINAL DIAGNOSIS\u000a\u000aCERTIFIES THAT HE/SHE HAS PERSONALLY REVIEWED THIS CASE AND CONFIRMED OR\u000a\u000aCORRECTED THE DIAGNOSIS.\u000a\u000a\u000a\u000a\u000a\u000aCLINICAL HISTORY\u000a\u000a30 YEAR OLD FEMALE (CURRENTLY BREAST FEEDING) FOR STEREO OF LEFT BREAST\u000a\u000aCALCIFICATIONS, ? DCIS VERSUS FCC VERSUS SCLEROSING ADENOSIS.  THE\u000a\u000aCALCIFICATIONS ARE IN THE SPECIMEN.\u000a\u000a\u000a\u000aSPECIMENS SUBMITTED:\u000a\u000aA: BREAST CORE BIOPSY, LEFT\u000a\u000a\u000a\u000a
p15
ag3
aa(lp16
VFINAL DIAGNOSIS\u000a\u000aCERTIFIES THAT HE/SHE HAS PERSONALLY REVIEWED THIS CASE AND CONFIRMED OR\u000a\u000aCORRECTED THE DIAGNOSIS.\u000a\u000a\u000a\u000a\u000a\u000aCLINICAL HISTORY\u000a\u000a32 YEAR OLD FEMALE PRESENTS FOR ULTRASOUND-GUIDED CORE BIOPSY OF HYPOECHOIC MASS\u000a\u000aIN THE LEFT BREAST, ? FIBROADENOMA VS. PHYLLODES TUMOR VS. OTHER.\u000a\u000a\u000a\u000aSPECIMENS SUBMITTED:\u000a\u000aA: BREAST CORE BIOPSY, LEFT\u000a\u000a\u000a\u000a
p17
ag3
aa(lp18
VFINAL DIAGNOSIS\u000a\u000aCERTIFIES THAT HE/SHE HAS PERSONALLY REVIEWED THIS CASE AND CONFIRMED OR\u000a\u000aCORRECTED THE DIAGNOSIS.\u000a\u000a\u000a\u000a\u000a\u000aCLINICAL HISTORY\u000a\u000a32 YEAR OLD FEMALE WITH LOBULATED MASS IN THE LEFT BREAST.  ? IDC VERSUS\u000a\u000aPHYLLODES VERSUS FIBROADENOMA.\u000a\u000a\u000a\u000aSPECIMENS SUBMITTED:\u000a\u000aA: BREAST CORE BIOPSY, LEFT\u000a\u000a\u000a\u000a
p19
ag3
aa(lp20
VFINAL DIAGNOSIS\u000a\u000aCERTIFIES THAT HE/SHE HAS PERSONALLY REVIEWED THIS CASE AND CONFIRMED OR\u000a\u000aCORRECTED THE DIAGNOSIS.\u000a\u000a\u000a\u000a\u000a\u000aCLINICAL HISTORY\u000a\u000a33 YEAR OLD FEMALE WITH HYPOECHOIC MASS IN THE RIGHT AXILLA. ? FIBROADENOMA.\u000a\u000a\u000a\u000aSPECIMENS SUBMITTED:\u000a\u000aA: AXILLARY MASS CORE BIOPSY, RIGHT\u000a\u000a\u000a\u000a
p21
ag3
aa(lp22
VFINAL DIAGNOSIS\u000a\u000aCERTIFIES THAT HE/SHE HAS PERSONALLY REVIEWED THIS CASE AND CONFIRMED OR\u000a\u000aCORRECTED THE DIAGNOSIS.\u000a\u000a\u000a\u000a\u000a\u000aCLINICAL HISTORY\u000a\u000a34 YEAR OLD FEMALE WITH OVAL CIRCUMSCRIBED HYPOECHOIC MASS IN THE LEFT BREAST, ?\u000a\u000aFIBROADENOMA.\u000a\u000a\u000a\u000aSPECIMENS SUBMITTED:\u000a\u000aA: BREAST CORE BIOPSY, LEFT\u000a\u000a\u000a\u000a
p23
ag3
aa(lp24
VFINAL DIAGNOSIS\u000a\u000aCERTIFIES THAT HE/SHE HAS PERSONALLY REVIEWED THIS CASE AND CONFIRMED OR\u000a\u000aCORRECTED THE DIAGNOSIS.\u000a\u000a\u000a\u000a\u000a\u000aCLINICAL HISTORY\u000a\u000a35 YEAR OLD FEMALE WITH AREA OF NON-MASS LIKE ENHANCEMENT IN THE INFERIOR LEFT\u000a\u000aBREAST  ? PASH VS BREAST PARENCHYMA VS\u000a\u000a\u000a\u000aSPECIMENS SUBMITTED:\u000a\u000aA: BREAST CORE BIOPSY, LEFT\u000a\u000a\u000a\u000a
p25
ag3
aa(lp26
VFINAL DIAGNOSIS\u000a\u000aCERTIFIES THAT HE/SHE HAS PERSONALLY REVIEWED THIS CASE AND CONFIRMED OR\u000a\u000aCORRECTED THE DIAGNOSIS.\u000a\u000a\u000a\u000a\u000a\u000aCLINICAL HISTORY\u000a\u000a35 YEAR OLD FEMALE WITH RIGHT BREAST MASS AT 10 O'CLOCK, 3CM FN, 21X20X11 MM. ?\u000a\u000aFIBROADENOMA VS PHYLLODES.\u000a\u000a\u000a\u000aSPECIMENS SUBMITTED:\u000a\u000aA: BREAST CORE BIOPSY, RIGHT 10:00, 3CM FN\u000a\u000a\u000a\u000a
p27
ag3
aa(lp28
VFINAL DIAGNOSIS\u000a\u000aCERTIFIES THAT HE/SHE HAS PERSONALLY REVIEWED THIS CASE AND CONFIRMED OR\u000a\u000aCORRECTED THE DIAGNOSIS.\u000a\u000a\u000a\u000a\u000a\u000aCLINICAL HISTORY\u000a\u000a36 YEAR OLD FEMALE WITH PERSONAL HISTORY OF STAGE III MELANOMA OF THE LEFT LEG\u000a\u000aAND STRONG FAMILY HISTORY OF BREAST CANCER WITH HYPOECHOIC LOBULAR MASS IN THE\u000a\u000aSUBAREOLAR LEFT BREAST, ? DUCT ECTASIA VS. SCC VS. OTHER.  PLEASE PERFORM BRAF\u000a\u000aIF APPROPRIATE.\u000a\u000a\u000a\u000aSPECIMENS SUBMITTED:\u000a\u000aA: BREAST CORE BIOPSY, LEFT\u000a\u000a\u000a\u000a
p29
ag3
aa(lp30
VFINAL DIAGNOSIS\u000a\u000aCERTIFIES THAT HE/SHE HAS PERSONALLY REVIEWED THIS CASE AND CONFIRMED OR\u000a\u000aCORRECTED THE DIAGNOSIS.\u000a\u000a\u000a\u000a\u000a\u000aCLINICAL HISTORY\u000a\u000a40 YO FEMALE WITH LEFT BREAST MASS AT 2:00, 6 CM FN. HISTORY OF RIGHT BREAST\u000a\u000aATYPICAL VASCULAR PROLIFERATION PER OUTSIDE PATHOLOGY.  ? FA VS. HEMANGIOMA VS.\u000a\u000aHAMARTOMA VS. OTHER.\u000a\u000a\u000a\u000aSPECIMENS SUBMITTED:\u000a\u000aA: BREAST CORE BIOPSY, LEFT 2:00\u000a\u000a\u000a\u000a
p31
ag3
aa(lp32
VFINAL DIAGNOSIS\u000a\u000aCERTIFIES THAT HE/SHE HAS PERSONALLY REVIEWED THIS CASE AND CONFIRMED OR\u000a\u000aCORRECTED THE DIAGNOSIS.\u000a\u000a\u000a\u000a\u000a\u000aCLINICAL HISTORY\u000a\u000a42 YEAR OLD FEMALE WITH RECENTLY PALPATED LEFT BREAST MASS FOR ULTRASOUND-GUIDED\u000a\u000aCORE BIOPSY, ? IDC.\u000a\u000a\u000a\u000aSPECIMENS SUBMITTED:\u000a\u000aA: BREAST CORE BIOPSY, LEFT\u000a\u000a\u000a\u000a
p33
ag3
aa(lp34
VFINAL DIAGNOSIS\u000a\u000aCERTIFIES THAT HE/SHE HAS PERSONALLY REVIEWED THIS CASE AND CONFIRMED OR\u000a\u000aCORRECTED THE DIAGNOSIS.\u000a\u000a\u000a\u000a\u000a\u000aCLINICAL HISTORY\u000a\u000a42 YEAR OLD FEMALE WITH SMOOTHLY MARGINATED OVAL HYPOECHOIC MASS IN THE RIGHT\u000a\u000aBREAST FOR ULTRASOUND GUIDED CORE BIOPSY.\u000a\u000a\u000a\u000aSPECIMENS SUBMITTED:\u000a\u000aA: BREAST CORE BIOPSY, RIGHT\u000a\u000a\u000a\u000a
p35
ag3
aa(lp36
VFINAL DIAGNOSIS\u000a\u000aCERTIFIES THAT HE/SHE HAS PERSONALLY REVIEWED THIS CASE AND CONFIRMED OR\u000a\u000aCORRECTED THE DIAGNOSIS.\u000a\u000a\u000a\u000a\u000a\u000aCLINICAL HISTORY\u000a\u000a42 YEAR OLD FEMALE WITH SMOOTHLY MARGINATED OVAL HYPOECHOIC MASS IN THE RIGHT\u000a\u000aBREAST FOR ULTRASOUND GUIDED CORE BIOPSY.\u000a\u000a\u000a\u000aSPECIMENS SUBMITTED:\u000a\u000aA: BREAST CORE BIOPSY, RIGHT\u000a\u000a\u000a\u000a
p37
ag3
aa(lp38
VFINAL DIAGNOSIS\u000a\u000aCERTIFIES THAT HE/SHE HAS PERSONALLY REVIEWED THIS CASE AND CONFIRMED OR\u000a\u000aCORRECTED THE DIAGNOSIS.\u000a\u000a\u000a\u000a\u000a\u000aCLINICAL HISTORY\u000a\u000a44 Y/O WITH HYPERECHOIC MASS IN LEFT BREAST. ? FIBROADENOMA VS PHYLLODES.\u000a\u000a\u000a\u000aSPECIMENS SUBMITTED:\u000a\u000aA: BREAST CORE BIOPSY, LEFT\u000a\u000a\u000a\u000a
p39
ag3
aa(lp40
VFINAL DIAGNOSIS\u000a\u000aCERTIFIES THAT HE/SHE HAS PERSONALLY REVIEWED THIS CASE AND CONFIRMED OR\u000a\u000aCORRECTED THE DIAGNOSIS.\u000a\u000a\u000a\u000a\u000a\u000aCLINICAL HISTORY\u000a\u000a45 YEAR OLD FEMALE WITH HYPOECHOIC REGION IN LEFT BREAST, HISTORY OF SMOKING AND\u000a\u000aDM, ? CHRONIC INFLAMMATION/ABSCESS VS. CARCINOMA VS. DIABETIC MASTOPATHY.\u000a\u000a\u000a\u000aSPECIMENS SUBMITTED:\u000a\u000aA: BREAST CORE BIOPSY, LEFT\u000a\u000a\u000a\u000a
p41
ag3
aa(lp42
VFINAL DIAGNOSIS\u000a\u000aCERTIFIES THAT HE/SHE HAS PERSONALLY REVIEWED THIS CASE AND CONFIRMED OR\u000a\u000aCORRECTED THE DIAGNOSIS.\u000a\u000a\u000a\u000a\u000a\u000aCLINICAL HISTORY\u000a\u000a45 YEAR-OLD FEMALE WITH A HISTORY OF RIGHT BREAST DCIS WITH INDETERMINATE\u000a\u000aCALCIFICATIONS IN THE LEFT BREAST.  TARGETED CALCS ARE IN THE SPECIMEN.\u000a\u000aINDETERMINATE?\u000a\u000a\u000a\u000aSPECIMENS SUBMITTED:\u000a\u000aA: BREAST CORE BIOPSY, LEFT LOWER INNER\u000a\u000a\u000a\u000a
p43
ag3
aa(lp44
VFINAL DIAGNOSIS\u000a\u000aCERTIFIES THAT HE/SHE HAS PERSONALLY REVIEWED THIS CASE AND CONFIRMED OR\u000a\u000aCORRECTED THE DIAGNOSIS.\u000a\u000a\u000a\u000a\u000a\u000aCLINICAL HISTORY\u000a\u000a46 YEAR OLD FEMALE WITH A 9 MM HYPOECHOIC MASS AT 12 O'CLOCK IN THE LEFT BREAST.\u000a\u000a?FIBROADENOMA VERSUS MALIGNANCY.\u000a\u000a\u000a\u000aSPECIMENS SUBMITTED:\u000a\u000aA: BREAST CORE BIOPSY, LEFT\u000a\u000a\u000a\u000a
p45
ag3
aa(lp46
VFINAL DIAGNOSIS\u000a\u000aCERTIFIES THAT HE/SHE HAS PERSONALLY REVIEWED THIS CASE AND CONFIRMED OR\u000a\u000aCORRECTED THE DIAGNOSIS.\u000a\u000a\u000a\u000a\u000a\u000aCLINICAL HISTORY\u000a\u000a46 YEAR OLD FEMALE WITH RIGHT BREAST NON MASS ENHANCEMENT WITHIN THE UPPER OUTER\u000a\u000aBREAST. DDX INCLUDES FCC VS. PASH VS. BACKGROUND ENHANCEMENT. PRIOR RIGHT BREAST\u000a\u000aBIOPSY REVEALED FCC AND PASH.\u000a\u000a\u000a\u000aSPECIMENS SUBMITTED:\u000a\u000aA: BREAST CORE BIOPSY, RIGHT\u000a\u000a\u000a\u000a
p47
ag3
aa(lp48
VFINAL DIAGNOSIS\u000a\u000aCERTIFIES THAT HE/SHE HAS PERSONALLY REVIEWED THIS CASE AND CONFIRMED OR\u000a\u000aCORRECTED THE DIAGNOSIS.\u000a\u000a\u000a\u000a\u000a\u000aCLINICAL HISTORY\u000a\u000a46 YO FEMALE WITH LEFT UPPER INNER BREAST CALCIFICATION. ? FIBROCYSTIC CHANGES\u000a\u000aVS SCLEROSING ADENOSIS. TARGETED CALCIFICATIONS ARE IN SPECIMEN.\u000a\u000a\u000a\u000aSPECIMENS SUBMITTED:\u000a\u000aA: BREAST CORE BIOPSY, LEFT\u000a\u000a\u000a\u000a
p49
ag3
aa(lp50
VFINAL DIAGNOSIS\u000a\u000aCERTIFIES THAT HE/SHE HAS PERSONALLY REVIEWED THIS CASE AND CONFIRMED OR\u000a\u000aCORRECTED THE DIAGNOSIS.\u000a\u000a\u000a\u000a\u000a\u000aCLINICAL HISTORY\u000a\u000a46 YO FEMALE WITH LEFT UPPER INNER BREAST CALCIFICATION. ? FIBROCYSTIC CHANGES\u000a\u000aVS SCLEROSING ADENOSIS. TARGETED CALCIFICATIONS ARE IN SPECIMEN.\u000a\u000a\u000a\u000aSPECIMENS SUBMITTED:\u000a\u000aA: BREAST CORE BIOPSY, LEFT\u000a\u000a\u000a\u000a
p51
ag3
aa(lp52
VFINAL DIAGNOSIS\u000a\u000aCERTIFIES THAT HE/SHE HAS PERSONALLY REVIEWED THIS CASE AND CONFIRMED OR\u000a\u000aCORRECTED THE DIAGNOSIS.\u000a\u000a\u000a\u000a\u000a\u000aCLINICAL HISTORY\u000a\u000a48 YEAR OLD FEMALE WITH FOCAL AREA OF NON-MASS ENHANCEMENT IN THE LEFT BREAST,\u000a\u000aLOWER CENTRAL QUADRANT AT POSTERIOR DEPTH. FAINT CALCS IN THE SPECIMEN X-RAY.\u000a\u000a?PASH, DCIS, IDC\u000a\u000a\u000a\u000aSPECIMENS SUBMITTED:\u000a\u000aA: BREAST CORE BIOPSY, LEFT LOWER CENTRAL REGION\u000a\u000a\u000a\u000a
p53
ag3
aa(lp54
VFINAL DIAGNOSIS\u000a\u000aCERTIFIES THAT HE/SHE HAS PERSONALLY REVIEWED THIS CASE AND CONFIRMED OR\u000a\u000aCORRECTED THE DIAGNOSIS.\u000a\u000a\u000a\u000a\u000a\u000aCLINICAL HISTORY\u000a\u000a48 YEAR OLD WITH INCREASED CALCIFICATIONS IN THE LEFT BREAST UPPER OUTER\u000a\u000aQUADRANT. DIFF: FCC, SCLEROSING ADENOSIS VS OTHER\u000a\u000a\u000a\u000aSPECIMENS SUBMITTED:\u000a\u000aA: BREAST CORE BIOPSY, LEFT\u000a\u000a\u000a\u000a
p55
ag3
aa(lp56
VFINAL DIAGNOSIS\u000a\u000aCERTIFIES THAT HE/SHE HAS PERSONALLY REVIEWED THIS CASE AND CONFIRMED OR\u000a\u000aCORRECTED THE DIAGNOSIS.\u000a\u000a\u000a\u000a\u000a\u000aCLINICAL HISTORY\u000a\u000a49 YEAR OLD FEMALE WITH A HYPOECHOIC MASS IN THE LEFT BREAST.  ? INVASIVE DUCTAL\u000a\u000aCARCINOMA VERSUS INVASIVE LOBULAR CARCINOMA VERSUS FIBROADENOMA VERSUS HEMATOMA.\u000a\u000a\u000a\u000aSPECIMENS SUBMITTED:\u000a\u000aA: BREAST CORE BIOPSY, LEFT\u000a\u000a\u000a\u000a
p57
ag3
aa(lp58
VFINAL DIAGNOSIS\u000a\u000aCERTIFIES THAT HE/SHE HAS PERSONALLY REVIEWED THIS CASE AND CONFIRMED OR\u000a\u000aCORRECTED THE DIAGNOSIS.\u000a\u000a\u000a\u000a\u000a\u000aCLINICAL HISTORY\u000a\u000a49 YEAR OLD FEMALE WITH INDETERMINATE LEFT BREAST INFERIOR CALCIFICATIONS,\u000a\u000aPRESENTS FOR STEREOTACTIC CORE BREAST BIOPSY, ? CONSIDER DCIS VS. OTHER\u000a\u000aFIBROCYSTIC, CALCIFICATIONS IN CASSETTE IN X-RAYED TISSUE SPECIMEN.\u000a\u000a\u000a\u000aSPECIMENS SUBMITTED:\u000a\u000aA: BREAST CORE BIOPSY, LEFT\u000a\u000a\u000a\u000a
p59
ag3
aa(lp60
VFINAL DIAGNOSIS\u000a\u000aCERTIFIES THAT HE/SHE HAS PERSONALLY REVIEWED THIS CASE AND CONFIRMED OR\u000a\u000aCORRECTED THE DIAGNOSIS.\u000a\u000a\u000a\u000a\u000a\u000aCLINICAL HISTORY\u000a\u000a49 YEAR OLD WITH INDETERMINATE CALCIFICATIONS IN THE RIGHT CENTRAL SLIGHTLY\u000a\u000aINNER BREAST.  THE BIOPSIED CALCIFICATIONS ARE PRESENT IN THE CASSETTES.\u000a\u000aINDETERMINATE BY IMAGING.\u000a\u000a\u000a\u000aSPECIMENS SUBMITTED:\u000a\u000aA: BREAST CORE BIOPSY, RIGHT\u000a\u000a\u000a\u000a
p61
ag3
aa(lp62
VFINAL DIAGNOSIS\u000a\u000aCERTIFIES THAT HE/SHE HAS PERSONALLY REVIEWED THIS CASE AND CONFIRMED OR\u000a\u000aCORRECTED THE DIAGNOSIS.\u000a\u000a\u000a\u000a\u000a\u000aCLINICAL HISTORY\u000a\u000a52 YEAR OLD FEMALE WITH INDETERMINANT CALCIFICATIONS IN THE LEFT BREAST. ?\u000a\u000aFIBROADENOMA, TARGETED CALCIFICATIONS ARE IN THE X-RAYED SPECIMEN.\u000a\u000a\u000a\u000aSPECIMENS SUBMITTED:\u000a\u000aA: BREAST CORE BIOPSY, LEFT\u000a\u000a\u000a\u000a
p63
ag3
aa(lp64
VFINAL DIAGNOSIS\u000a\u000aCERTIFIES THAT HE/SHE HAS PERSONALLY REVIEWED THIS CASE AND CONFIRMED OR\u000a\u000aCORRECTED THE DIAGNOSIS.\u000a\u000a\u000a\u000a\u000a\u000aCLINICAL HISTORY\u000a\u000a53 YEAR OLD FEMALE WITH RIGHT BREAST HYPOECHOIC MASS.  ? INVASIVE DUCTAL\u000a\u000aCARCINOMA VERSUS CYST VERSUS FIBROADENOMA.\u000a\u000a\u000a\u000aSPECIMENS SUBMITTED:\u000a\u000aA: BREAST CORE BIOPSY, RIGHT\u000a\u000a\u000a\u000a
p65
ag3
aa(lp66
VFINAL DIAGNOSIS\u000a\u000aCERTIFIES THAT HE/SHE HAS PERSONALLY REVIEWED THIS CASE AND CONFIRMED OR\u000a\u000aCORRECTED THE DIAGNOSIS.\u000a\u000a\u000a\u000a\u000a\u000aCLINICAL HISTORY\u000a\u000a54 YEAR OLD FEMALE WITH A HYPOECHOIC MASS IN THE LEFT BREAST.  IMAGING FEATURES\u000a\u000aSUGGESTIVE OF A PAPILLOMA VERSUS FIBROADENOMA.\u000a\u000a\u000a\u000aSPECIMENS SUBMITTED:\u000a\u000aA: BREAST CORE BIOPSY, LEFT\u000a\u000a\u000a\u000a
p67
ag3
aa(lp68
VFINAL DIAGNOSIS\u000a\u000aCERTIFIES THAT HE/SHE HAS PERSONALLY REVIEWED THIS CASE AND CONFIRMED OR\u000a\u000aCORRECTED THE DIAGNOSIS.\u000a\u000a\u000a\u000a\u000a\u000aCLINICAL HISTORY\u000a\u000a55 YEAR OLD FEMALE WITH FAMILY HISTORY OF OVARIAN CANCER.  PRESENTS FOR US\u000a\u000aGUIDED CORE BIOPSY OF HYPOECHOIC MASS IN THE LEFT BREAST ? FIBROADENOMA VS. IDC,\u000a\u000aVS. HAMARTOMA.\u000a\u000a\u000a\u000aSPECIMENS SUBMITTED:\u000a\u000aA: BREAST CORE BIOPSY, LEFT\u000a\u000a\u000a\u000a
p69
ag3
aa(lp70
VFINAL DIAGNOSIS\u000a\u000aCERTIFIES THAT HE/SHE HAS PERSONALLY REVIEWED THIS CASE AND CONFIRMED OR\u000a\u000aCORRECTED THE DIAGNOSIS.\u000a\u000a\u000a\u000a\u000a\u000aCLINICAL HISTORY\u000a\u000a56 FEMALE WITH AN OVAL MASS IN THE RIGHT BREAST, MEASURING 18 MM, PRESENTS FOR\u000a\u000aULTRASOUND GUIDED CORE BIOPSY.  ? FIBROADENOMA.\u000a\u000a\u000a\u000aSPECIMENS SUBMITTED:\u000a\u000aA: BREAST CORE BIOPSY, RIGHT\u000a\u000a\u000a\u000a
p71
ag3
aa(lp72
VFINAL DIAGNOSIS\u000a\u000aCERTIFIES THAT HE/SHE HAS PERSONALLY REVIEWED THIS CASE AND CONFIRMED OR\u000a\u000aCORRECTED THE DIAGNOSIS.\u000a\u000a\u000a\u000a\u000a\u000aCLINICAL HISTORY\u000a\u000a56 YEAR OLD FEMALE WITH LEFT BREAST CALCIFICATION FOR STEREOTACTIC CORE BIOPSY.\u000a\u000aHISTORY OF RIGHT BREAST CANCER, STATUS POST LUMPECTOMY AND RADIATION IN 1997.\u000a\u000a\u000a\u000aSPECIMENS SUBMITTED:\u000a\u000aA: BREAST CORE BIOPSY, LEFT\u000a\u000a\u000a\u000a
p73
ag3
aa(lp74
VFINAL DIAGNOSIS\u000a\u000aCERTIFIES THAT HE/SHE HAS PERSONALLY REVIEWED THIS CASE AND CONFIRMED OR\u000a\u000aCORRECTED THE DIAGNOSIS.\u000a\u000a\u000a\u000a\u000a\u000aCLINICAL HISTORY\u000a\u000a56 YEAR OLD FEMALE WITH LEFT BREAST MASS AT 4:00 , 2CM FN, CORRESPONDING TO\u000a\u000aFOCAL AREA OF CLUMPED NON MASS ENHANCEMENT ON MRI. DIFF INCLUDES: FCC,\u000a\u000aFIBROADENOMA, MALIGNANCY.\u000a\u000a\u000a\u000aSPECIMENS SUBMITTED:\u000a\u000aA: BREAST CORE BIOPSY, LEFT 4:00 MASS\u000a\u000a\u000a\u000a
p75
ag3
aa(lp76
VFINAL DIAGNOSIS\u000a\u000aCERTIFIES THAT HE/SHE HAS PERSONALLY REVIEWED THIS CASE AND CONFIRMED OR\u000a\u000aCORRECTED THE DIAGNOSIS.\u000a\u000a\u000a\u000a\u000a\u000aCLINICAL HISTORY\u000a\u000a56 YEAR OLD FEMALE WITH SMALL CLUSTER OF CALCIFICATIONS IN THE LEFT BREAST.  THE\u000a\u000aCALCIFICATIONS ARE IN THE CASSETTE, ? INVOLUTING FIBROADENOMA VS. FIBROCYSTIC\u000a\u000aCHANGE VS. DCIS.\u000a\u000a\u000a\u000aSPECIMENS SUBMITTED:\u000a\u000aA: BREAST CORE BIOPSY, LEFT\u000a\u000a\u000a\u000a
p77
ag3
aa(lp78
VFINAL DIAGNOSIS\u000a\u000aCERTIFIES THAT HE/SHE HAS PERSONALLY REVIEWED THIS CASE AND CONFIRMED OR\u000a\u000aCORRECTED THE DIAGNOSIS.\u000a\u000a\u000a\u000a\u000a\u000aCLINICAL HISTORY\u000a\u000a56 YEAR-OLD FEMALE WITH CALCIFICATIONS IN THE RIGHT SLIGHTLY UPPER LATERAL\u000a\u000aBREAST.  THE BIOPSIED CALCIFICATIONS ARE CHECKED IN THE CASSETTE AND X-RAY\u000a\u000aTISSUE SPECIMEN - ? DUCTAL CARCINOMA IN SITU VS. FCA.\u000a\u000a\u000a\u000a\u000a\u000aSPECIMENS SUBMITTED:\u000a\u000aA: BREAST CORE BIOPSY, RIGHT\u000a\u000a\u000a\u000a
p79
ag3
aa(lp80
VFINAL DIAGNOSIS\u000a\u000aCERTIFIES THAT HE/SHE HAS PERSONALLY REVIEWED THIS CASE AND CONFIRMED OR\u000a\u000aCORRECTED THE DIAGNOSIS.\u000a\u000a\u000a\u000a\u000a\u000aCLINICAL HISTORY\u000a\u000a57 YEAR OLD FEMALE WITH CALCIFICATION IN LEFT BREAST, ? DUCTAL CARCINOMA IN-SITU\u000a\u000aVERSUS FIBROCYSTIC CHANGES\u000a\u000aVERSUS SCLEROSING ADENOSIS.\u000a\u000a\u000a\u000aSPECIMENS SUBMITTED:\u000a\u000aA: BREAST CORE BIOPSY, LEFT\u000a\u000a\u000a\u000a
p81
ag3
aa(lp82
VFINAL DIAGNOSIS\u000a\u000aCERTIFIES THAT HE/SHE HAS PERSONALLY REVIEWED THIS CASE AND CONFIRMED OR\u000a\u000aCORRECTED THE DIAGNOSIS.\u000a\u000a\u000a\u000a\u000a\u000aCLINICAL HISTORY\u000a\u000a57 YEAR OLD FEMALE WITH TWO SUSPICIOUS MASSES IN THE LEFT BREAST.  A.\u000a\u000aMICROLOBULATED HYPOECHOIC MASS IN THE LEFT BREAST AT 2 O'CLOCK, 9.0 CM FROM THE\u000a\u000aNIPPLE.  SPECIMEN JAR LABELED "A LEFT BREAST 2 O'CLOCK", ? FIBROADENOMA VERSUS\u000a\u000aMALIGNANCY.  B.  CIRCUMSCRIBED MASS IN THE LEFT BREAST, RETROAREOLAR AT 4\u000a\u000aO'CLOCK.  "SPECIMEN JAR LABELED B LEFT BREAST RETROAREOLAR", ? PAPILLOMA VERSUS\u000a\u000aCYST WALL VERSUS OTHER.\u000a\u000a\u000a\u000aSPECIMENS SUBMITTED:\u000a\u000aA: BREAST CORE BIOPSY, LEFT 2:00\u000a\u000aB: BREAST CORE BIOPSY, LEFT RETROAREOLAR\u000a\u000a\u000a\u000a
p83
ag3
aa(lp84
VFINAL DIAGNOSIS\u000a\u000aCERTIFIES THAT HE/SHE HAS PERSONALLY REVIEWED THIS CASE AND CONFIRMED OR\u000a\u000aCORRECTED THE DIAGNOSIS.\u000a\u000a\u000a\u000a\u000a\u000aCLINICAL HISTORY\u000a\u000a59 YEAR OLD FEMALE WITH HISTORY OF LEFT INVASIVE DUCTAL CARCINOMA, NOW WITH\u000a\u000aRIGHT BREAST CALCIFICATIONS, ? DUCTAL CARCINOMA IN SITU, TARGETED CALCIFICATIONS\u000a\u000aARE IN THE SPECIMEN.\u000a\u000a\u000a\u000aSPECIMENS SUBMITTED:\u000a\u000aA: BREAST CORE BIOPSY, RIGHT\u000a\u000a\u000a\u000a
p85
ag3
aa(lp86
VFINAL DIAGNOSIS\u000a\u000aCERTIFIES THAT HE/SHE HAS PERSONALLY REVIEWED THIS CASE AND CONFIRMED OR\u000a\u000aCORRECTED THE DIAGNOSIS.\u000a\u000a\u000a\u000a\u000a\u000aCLINICAL HISTORY\u000a\u000a60 YEAR OLD FEMALE STATUS POST STEREOTACTIC CORE BIOPSY FOR CALCIFICATIONS IN\u000a\u000aTHE RIGHT BREAST.  ? DCIS VS FCC.\u000a\u000a\u000a\u000aSPECIMENS SUBMITTED:\u000a\u000aA: BREAST CORE BIOPSY, RIGHT, WITH CALCIFICATIONS\u000a\u000a\u000a\u000a
p87
ag3
aa(lp88
VFINAL DIAGNOSIS\u000a\u000aCERTIFIES THAT HE/SHE HAS PERSONALLY REVIEWED THIS CASE AND CONFIRMED OR\u000a\u000aCORRECTED THE DIAGNOSIS.\u000a\u000a\u000a\u000a\u000a\u000aCLINICAL HISTORY\u000a\u000a64 YEAR OLD FEMALE WITH CYST IN THE RIGHT BREAST, STATUS POST ASPIRATION WITH\u000a\u000aRESIDUAL HYPOECHOIC AREA POSTASPIRATION.  CORE BIOPSIES WERE TAKEN OF THE\u000a\u000aREMAINING FINDING.  ? CYST WALL VS. INFLAMMATION VS. OTHER.\u000a\u000a\u000a\u000aSPECIMENS SUBMITTED:\u000a\u000aA: BREAST CORE BIOPSY, RIGHT\u000a\u000a\u000a\u000a
p89
ag3
aa(lp90
VFINAL DIAGNOSIS\u000a\u000aCERTIFIES THAT HE/SHE HAS PERSONALLY REVIEWED THIS CASE AND CONFIRMED OR\u000a\u000aCORRECTED THE DIAGNOSIS.\u000a\u000a\u000a\u000a\u000a\u000aCLINICAL HISTORY\u000a\u000a66 YEAR OLD FEMALE PRESENTS FOR ULTRASOUND-GUIDED CORE BIOPSY OF A RIGHT BREAST\u000a\u000aMASS AT 9 O'CLOCK ? CLUSTER OF MICROCYSTS VS APOCRINE METAPLASIA VS PAPILLOMA\u000a\u000a\u000a\u000aSPECIMENS SUBMITTED:\u000a\u000aA: BREAST CORE BIOPSY, RIGHT\u000a\u000a\u000a\u000a
p91
ag3
aa(lp92
VFINAL DIAGNOSIS\u000a\u000aCERTIFIES THAT HE/SHE HAS PERSONALLY REVIEWED THIS CASE AND CONFIRMED OR\u000a\u000aCORRECTED THE DIAGNOSIS.\u000a\u000a\u000a\u000a\u000a\u000aCLINICAL HISTORY\u000a\u000a66 YEAR OLD FEMALE WITH RIGHT BREAST CALCIFICATIONS IN THE LOWER OUTER QUADRANT\u000a\u000aAT POSTERIOR DEPTH. TARGETED CALCIFICATIONS IN X-RAYED TISSUE SPECIMEN.\u000a\u000a\u000a\u000aSPECIMENS SUBMITTED:\u000a\u000aA: BREAST CORE BIOPSY, RIGHT\u000a\u000a\u000a\u000a
p93
ag3
aa(lp94
VFINAL DIAGNOSIS\u000a\u000aCERTIFIES THAT HE/SHE HAS PERSONALLY REVIEWED THIS CASE AND CONFIRMED OR\u000a\u000aCORRECTED THE DIAGNOSIS.\u000a\u000a\u000a\u000a\u000a\u000aCLINICAL HISTORY\u000a\u000a67 YEAR OLD FEMALE PRESENT FOR STEREOTACTIC BIOPSY OF RIGHT BREAST\u000a\u000aCALCIFICATION.  THERE MAY BE AN ASSOCIATED MASS, ? FCA VERSUS DCIS.  BIOPSY\u000a\u000aCALCIFICATIONS ARE PRESENT IN RADIOGRAPH SAMPLE.\u000a\u000a\u000a\u000aSPECIMENS SUBMITTED:\u000a\u000aA: BREAST CORE BIOPSY, RIGHT\u000a\u000a\u000a\u000a
p95
ag3
aa(lp96
VFINAL DIAGNOSIS\u000a\u000aCERTIFIES THAT HE/SHE HAS PERSONALLY REVIEWED THIS CASE AND CONFIRMED OR\u000a\u000aCORRECTED THE DIAGNOSIS.\u000a\u000a\u000a\u000a\u000a\u000aCLINICAL HISTORY\u000a\u000a68 YEAR OLD FEMALE WITH RIGHT BREAST CALCIFICATIONS, ? DUCTAL CARCINOMA IN SITU\u000a\u000aOR OTHER. TARGETED CALCIFICATIONS ARE IN THE X-RAYED SPECIMEN.\u000a\u000a\u000a\u000aSPECIMENS SUBMITTED:\u000a\u000aA: BREAST CORE BIOPSY, RIGHT\u000a\u000a\u000a\u000a
p97
ag3
aa(lp98
VFINAL DIAGNOSIS\u000a\u000aCERTIFIES THAT HE/SHE HAS PERSONALLY REVIEWED THIS CASE AND CONFIRMED OR\u000a\u000aCORRECTED THE DIAGNOSIS.\u000a\u000a\u000a\u000a\u000a\u000aCLINICAL HISTORY\u000a\u000a75 YEAR OLD FEMALE WITH LEFT BREAST HYPOECHOIC MASS OR CYST, HERE FOR ASPIRATION\u000a\u000aVERSUS BIOPSY UNDER ULTRASOUND GUIDANCE.  LESION IS AT 11 O'CLOCK IN LEFT\u000a\u000aBREAST.\u000a\u000a\u000a\u000aSPECIMENS SUBMITTED:\u000a\u000aA: BREAST CORE BIOPSY, LEFT CYST/MASS\u000a\u000a\u000a\u000a
p99
ag3
aa(lp100
VFINAL DIAGNOSIS\u000a\u000aCERTIFIES THAT HE/SHE HAS PERSONALLY REVIEWED THIS CASE AND CONFIRMED OR\u000a\u000aCORRECTED THE DIAGNOSIS.\u000a\u000a\u000a\u000a\u000a\u000aCLINICAL HISTORY\u000a\u000aA) RIGHT BREAST 9:00 8CM FN OVAL HYPOECHOIC MASS.  B) RIGHT BREAST IRREGULAR\u000a\u000aHYPOECHOIC MASS ADJACENT TO ABOVE MASS AT 9:00 8CM FN.\u000a\u000a\u000a\u000aSPECIMENS SUBMITTED:\u000a\u000aA: BREAST CORE BIOPSY, RIGHT 9:00 OVAL MASS 8CM FN\u000a\u000aB: BREAST CORE BIOPSY, RIGHT 9:00 IRREGULAR MASS 8CM FN\u000a\u000a\u000a\u000a
p101
ag3
aa(lp102
VFINAL DIAGNOSIS\u000a\u000aCERTIFIES THAT HE/SHE HAS PERSONALLY REVIEWED THIS CASE AND CONFIRMED OR\u000a\u000aCORRECTED THE DIAGNOSIS.\u000a\u000a\u000a\u000a\u000a\u000aCLINICAL HISTORY\u000a\u000aCALCIFICATIONS IN THE RIGHT BREAST\u000a\u000a\u000a\u000aSPECIMENS SUBMITTED:\u000a\u000aA: BREAST CORE BIOPSY, RIGHT, CENTRAL SUPERIOR\u000a\u000a\u000a\u000a
p103
ag3
aa(lp104
VFINAL DIAGNOSIS\u000a\u000aCERTIFIES THAT HE/SHE HAS PERSONALLY REVIEWED THIS CASE AND CONFIRMED OR\u000a\u000aCORRECTED THE DIAGNOSIS.\u000a\u000a\u000a\u000a\u000a\u000aCLINICAL HISTORY\u000a\u000aCALCIFICATIONS IN THE RIGHT BREAST\u000a\u000a\u000a\u000aSPECIMENS SUBMITTED:\u000a\u000aA: BREAST CORE BIOPSY, RIGHT, UPPER OUTER QUADRANT, WITH CALCIFICATIONS\u000a\u000a(S12-14935-1A-1B; 12/04/12)\u000a\u000aB: BREAST CORE BIOPSY, RIGHT, UPPER OUTER QUADRANT, WITHOUT CALCIFICATIONS\u000a\u000a(S12-14935-2A-2D; 12/4/2012)\u000a\u000a\u000a\u000aSLIDE-BLOCK DESCRIPTION:\u000a\u000aCONSULT MATERIALS RECEIVED FROM HALLMARK MELROSE WAKEFIELD, MELROSE MA\u000a\u000a\u000a\u000aA.  RIGHT BREAST, UPPER OUTER QUADRANT, STEREOTACTIC BIOPSY WITH CALCIFICATIONS\u000a\u000a(S12-14935-1A-1B; 12/04/12):\u000a\u000aSTAINED SLIDES: 6      UNSTAINED SLIDES: 0     BLOCKS: 0\u000a\u000a\u000a\u000aB.  RIGHT BREAST, UPPER OUTER QUADRANT, STEREOTACTIC BIOPSY WITHOUT\u000a\u000aCALCIFICATIONS (S12-14935-2A-2D; 12/4/2012):\u000a\u000aSTAINED SLIDES: 12      UNSTAINED SLIDES: 0     BLOCKS: 0\u000a\u000a\u000a\u000a\u000a\u000a\u000a\u000a
p105
ag3
aa(lp106
VFINAL DIAGNOSIS\u000a\u000aCERTIFIES THAT HE/SHE HAS PERSONALLY REVIEWED THIS CASE AND CONFIRMED OR\u000a\u000aCORRECTED THE DIAGNOSIS.\u000a\u000a\u000a\u000a\u000a\u000aCLINICAL HISTORY\u000a\u000aLCIS.  LEFT BREAST MASS.\u000a\u000a\u000a\u000aSPECIMENS SUBMITTED:\u000a\u000aA: BREAST CORE  BIOPSY, LEFT, 1 O'CLOCK, 6CM FROM NIPPLE (12:S4338-A; 1/26/12)\u000a\u000aB: BREAST CORE  BIOPSY, LEFT, 1 O'CLOCK, 6CM FROM NIPPLE (12:S4338-B\u005cT\u005cC;\u000a\u000a1/26/12)\u000a\u000aC: BREAST CORE BIOPSY, LEFT, 11 O'CLOCK, 5 CM FROM NIPPLE (12:S4338-D\u005cT\u005cE;\u000a\u000a1/26/12)\u000a\u000aD: BREAST, RIGHT, LUMPECTOMY (12:S18127; 4/13/12)\u000a\u000aE: BREAST, LEFT, LUMPECTOMY (12:S25665; 5/25/12)\u000a\u000a\u000a\u000aSLIDE-BLOCK DESCRIPTION:\u000a\u000aCONSULT MATERIALS RECEIVED FROM UMASS MEMORIAL MEDICAL CENTER, WORCESTER, MA\u000a\u000a01605.\u000a\u000a\u000a\u000aA. BREAST CORE BIOPSY, LEFT, 1 O'CLOCK, 6CM FROM NIPPLE (12:S4338-A; 1/26/12):\u000a\u000aSTAINED SLIDES: 4      UNSTAINED SLIDES: 0     BLOCKS: 0\u000a\u000a\u000a\u000aB. BREAST CORE BIOPSY, LEFT, 1 O'CLOCK, 6CM FROM NIPPLE (12:S4338-B\u005cT\u005cC;\u000a\u000a1/26/12):\u000a\u000aSTAINED SLIDES: 17      UNSTAINED SLIDES: 0     BLOCKS: 0\u000a\u000a\u000a\u000aC. BREAST CORE BIOPSY, LEFT, 11 O'CLOCK, 5 CM FROM NIPPLE (12:S4338-D\u005cT\u005cE;\u000a\u000a1/26/12):\u000a\u000aSTAINED SLIDES: 8      UNSTAINED SLIDES: 0     BLOCKS: 0\u000a\u000a\u000a\u000aD. BREAST, RIGHT, LUMPECTOMY (12:S18127; 4/13/12):\u000a\u000aSTAINED SLIDES: 19      UNSTAINED SLIDES: 0     BLOCKS: 0\u000a\u000a\u000a\u000aE. BREAST, LEFT, LUMPECTOMY (12:S25665; 5/25/12):\u000a\u000aSTAINED SLIDES: 11      UNSTAINED SLIDES: 0     BLOCKS: 0\u000a\u000a\u000a\u000a\u000a\u000a\u000a\u000a
p107
ag3
aa(lp108
VFINAL DIAGNOSIS\u000a\u000aCERTIFIES THAT HE/SHE HAS PERSONALLY REVIEWED THIS CASE AND CONFIRMED OR\u000a\u000aCORRECTED THE DIAGNOSIS.\u000a\u000a\u000a\u000a\u000a\u000aCLINICAL HISTORY\u000a\u000aMASS IN THE RIGHT BREAST\u000a\u000a\u000a\u000aSPECIMENS SUBMITTED:\u000a\u000aA: BREAST CORE BIOPSY, RIGHT, LATERAL\u000a\u000a\u000a\u000a
p109
ag3
aa(lp110
VFINAL DIAGNOSIS\u000a\u000aCERTIFIES THAT HE/SHE HAS PERSONALLY REVIEWED THIS CASE AND CONFIRMED OR\u000a\u000aCORRECTED THE DIAGNOSIS.\u000a\u000a\u000a\u000aCLINICAL HISTORY\u000a\u000a34-YEAR-OLD FEMALE WITH A PALPABLE LEFT BREAST LUMP. QUESTION FIBROADENOMA VS\u000a\u000aPHYLLODES VS CANCER.\u000a\u000a\u000a\u000aSPECIMENS SUBMITTED:\u000a\u000aA: BREAST CORE BIOPSY, LEFT BREAST MASS\u000a\u000a\u000a\u000a
p111
ag3
aa(lp112
VFINAL DIAGNOSIS\u000a\u000aCERTIFIES THAT HE/SHE HAS PERSONALLY REVIEWED THIS CASE AND CONFIRMED OR\u000a\u000aCORRECTED THE DIAGNOSIS.\u000a\u000a\u000a\u000aCLINICAL HISTORY\u000a\u000a39-Y/O FEMALE S/P MRI-GUIDED BIOPSY OF FOCAL AREA OF NON-MASS ENHANCEMENT\u000a\u000aMEASURING 8MM IN THE LOWER OUTER LEFT BREAST. QUESTION FCC VS DCIS VS PASH.\u000a\u000a\u000a\u000aSPECIMENS SUBMITTED:\u000a\u000aA: BREAST CORE BIOPSY, LEFT\u000a\u000a\u000a\u000a
p113
ag3
aa(lp114
VFINAL DIAGNOSIS\u000a\u000aCERTIFIES THAT HE/SHE HAS PERSONALLY REVIEWED THIS CASE AND CONFIRMED OR\u000a\u000aCORRECTED THE DIAGNOSIS.\u000a\u000a\u000a\u000aCLINICAL HISTORY\u000a\u000a41 YEAR OLD FEMALE WITH ENHANCING MASS WITH WASHOUT IN RIGHT UPPER OUTER BREAST,\u000a\u000a? MALIGNANCY.\u000a\u000a\u000a\u000aSPECIMENS SUBMITTED:\u000a\u000aA: BREAST CORE BIOPSY, RIGHT\u000a\u000a\u000a\u000a
p115
ag3
aa(lp116
VFINAL DIAGNOSIS\u000a\u000aCERTIFIES THAT HE/SHE HAS PERSONALLY REVIEWED THIS CASE AND CONFIRMED OR\u000a\u000aCORRECTED THE DIAGNOSIS.\u000a\u000a\u000a\u000aCLINICAL HISTORY\u000a\u000a41 YO FEMALE WITH TWO SUSPICIOUS AREAS OF ENHANCEMENT IN THE RIGHT BREAST- ONE\u000a\u000aUPPER INNER AND ONE LOWER INNER. HISTORY OF LEFT BREAST INVASIVE DUCTAL\u000a\u000aCARCINOMA GRADE 3 IN 2007, S/P LUMPECTOMY, AXILLARY LYMPH NODE DISSECTION AND\u000a\u000aCHEMORADIATION THERAPY.\u000a\u000a\u000a\u000aSPECIMENS SUBMITTED:\u000a\u000aA: BREAST CORE BIOPSY, RIGHT UPPER INNER\u000a\u000aB: BREAST CORE BIOPSY, RIGHT LOWER INNER\u000a\u000a\u000a\u000a
p117
ag3
aa(lp118
VFINAL DIAGNOSIS\u000a\u000aCERTIFIES THAT HE/SHE HAS PERSONALLY REVIEWED THIS CASE AND CONFIRMED OR\u000a\u000aCORRECTED THE DIAGNOSIS.\u000a\u000a\u000a\u000aCLINICAL HISTORY\u000a\u000a42 YEAR OLD FEMALE STATUS POST ULTRASOUND GUIDED CORE BIOPSY OF 9X4X7 MM COMPLEX\u000a\u000a(CYSTIC/ SOLID) MASS AT 6:00, LEFT BREAST ? PAPILLARY LESION VS CYST VS\u000a\u000aCARCINOMA.\u000a\u000a\u000a\u000aSPECIMENS SUBMITTED:\u000a\u000aA: BREAST CORE BIOPSY, LEFT\u000a\u000a\u000a\u000a
p119
ag3
aa(lp120
VFINAL DIAGNOSIS\u000a\u000aCERTIFIES THAT HE/SHE HAS PERSONALLY REVIEWED THIS CASE AND CONFIRMED OR\u000a\u000aCORRECTED THE DIAGNOSIS.\u000a\u000a\u000a\u000aCLINICAL HISTORY\u000a\u000a44 YEAR OLD FEMALE WITH AN INCREASING HYPOECHOIC MASS IN THE LEFT BREAST\u000a\u000aMEASURING 14 MM. ? FIBROADENOMA VERSUS HAMARTOMA VERSUS PHYLLODES.\u000a\u000a\u000a\u000aSPECIMENS SUBMITTED:\u000a\u000aA: BREAST CORE BIOPSY, LEFT 8:00\u000a\u000a\u000a\u000a
p121
ag3
aa(lp122
VFINAL DIAGNOSIS\u000a\u000aCERTIFIES THAT HE/SHE HAS PERSONALLY REVIEWED THIS CASE AND CONFIRMED OR\u000a\u000aCORRECTED THE DIAGNOSIS.\u000a\u000a\u000a\u000aCLINICAL HISTORY\u000a\u000a46 YEAR OLD FEMALE WITH INDETERMINATE LEFT BREAST CALCIFICATIONS, THEY ARE IN\u000a\u000aTHE POSTERIOR OUTER, SLIGHTLY LOWER BREAST.\u000a\u000a\u000a\u000aSPECIMENS SUBMITTED:\u000a\u000aA: BREAST CORE BIOPSY, LEFT\u000a\u000a\u000a\u000a
p123
ag3
aa(lp124
VFINAL DIAGNOSIS\u000a\u000aCERTIFIES THAT HE/SHE HAS PERSONALLY REVIEWED THIS CASE AND CONFIRMED OR\u000a\u000aCORRECTED THE DIAGNOSIS.\u000a\u000a\u000a\u000aCLINICAL HISTORY\u000a\u000a49 YO F WITH LEFT BREAST CALCIFICATIONS. TARGETED CALCIFICATIONS ARE PRESENT IN\u000a\u000aSPECIMEN.\u000a\u000a\u000a\u000aSPECIMENS SUBMITTED:\u000a\u000aA: BREAST CORE BIOPSY, LEFT\u000a\u000a\u000a\u000a
p125
ag3
aa(lp126
VFINAL DIAGNOSIS\u000a\u000aCERTIFIES THAT HE/SHE HAS PERSONALLY REVIEWED THIS CASE AND CONFIRMED OR\u000a\u000aCORRECTED THE DIAGNOSIS.\u000a\u000a\u000a\u000aCLINICAL HISTORY\u000a\u000a50 YEAR OLD WITH CALCIFICATIONS IN THE RIGHT BREAST.  TARGETED CALCIFICATIONS\u000a\u000aCONTAINED WITHIN ORANGE CASSETTE.\u000a\u000a\u000a\u000aSPECIMENS SUBMITTED:\u000a\u000aA: BREAST CORE BIOPSY, RIGHT\u000a\u000a\u000a\u000a
p127
ag3
aa(lp128
VFINAL DIAGNOSIS\u000a\u000aCERTIFIES THAT HE/SHE HAS PERSONALLY REVIEWED THIS CASE AND CONFIRMED OR\u000a\u000aCORRECTED THE DIAGNOSIS.\u000a\u000a\u000a\u000aCLINICAL HISTORY\u000a\u000a54 YEAR OLD FEMALE WITH NEW GROUP OF LEFT UPPER OUTER BREAST CALCIFICATIONS. ?\u000a\u000aDCIS VS BENIGN ETIOLOGY (FIBROADENOMA?)\u000a\u000a\u000a\u000aSPECIMENS SUBMITTED:\u000a\u000aA: BREAST CORE BIOPSY, LEFT\u000a\u000a\u000a\u000a
p129
ag3
aa(lp130
VFINAL DIAGNOSIS\u000a\u000aCERTIFIES THAT HE/SHE HAS PERSONALLY REVIEWED THIS CASE AND CONFIRMED OR\u000a\u000aCORRECTED THE DIAGNOSIS.\u000a\u000a\u000a\u000aCLINICAL HISTORY\u000a\u000a57 YEAR OLD FEMALE WITH INDETERMINATE CALCIFICATIONS, GROUPED IN THE UPPER\u000a\u000aCENTRAL RIGHT BREAST.\u000a\u000a\u000a\u000aSPECIMENS SUBMITTED:\u000a\u000aA: BREAST CORE BIOPSY, RIGHT\u000a\u000a\u000a\u000a
p131
ag3
aa(lp132
VFINAL DIAGNOSIS\u000a\u000aCERTIFIES THAT HE/SHE HAS PERSONALLY REVIEWED THIS CASE AND CONFIRMED OR\u000a\u000aCORRECTED THE DIAGNOSIS.\u000a\u000a\u000a\u000aCLINICAL HISTORY\u000a\u000a73-YEAR-OLD FEMALE STATUS POST STEREOTACTIC CORE BIOPSY OF RIGHT BREAST\u000a\u000aCALCIFICATIONS AT 12:00. QUESTION FA VS DCIS. TARGETED CALCIFICATIONS IN X-RAYED\u000a\u000aSPECIMEN.\u000a\u000a\u000a\u000aSPECIMENS SUBMITTED:\u000a\u000aA: BREAST CORE BIOPSY, RIGHT\u000a\u000a\u000a\u000a
p133
ag3
aa(lp134
VFINAL DIAGNOSIS\u000a\u000aCERTIFIES THAT HE/SHE HAS PERSONALLY REVIEWED THIS CASE AND CONFIRMED OR\u000a\u000aCORRECTED THE DIAGNOSIS.\u000a\u000a\u000a\u000aCLINICAL HISTORY\u000a\u000aINDETERMINATE RIGHT BREAST CALCIFICATIONS; CALCIFICATIONS ARE PRESENT IN THE\u000a\u000aSPECIMEN IN THE CASSETTE.\u000a\u000a\u000a\u000aSPECIMENS SUBMITTED:\u000a\u000aA: BREAST CORE BIOPSY, RIGHT\u000a\u000a\u000a\u000a
p135
ag3
aa(lp136
VFINAL DIAGNOSIS\u000a\u000aCERTIFIES THAT HE/SHE HAS PERSONALLY REVIEWED THIS CASE AND CONFIRMED OR\u000a\u000aCORRECTED THE DIAGNOSIS.\u000a\u000a\u000a\u000aCLINICAL HISTORY\u000a\u000aS/P ULTRASOUND GUIDED BIOPSY OF HYPOECHOIC MASS IN THE RIGHT BREAST AT 5:00.\u000a\u000aDDX: LYMPH NODE VS. FIBROADENOMA VS SEBACEOUS CYST.\u000a\u000a\u000a\u000aSPECIMENS SUBMITTED:\u000a\u000aA: BREAST CORE BIOPSY, RIGHT\u000a\u000a\u000a\u000a
p137
ag3
aa(lp138
VFINAL DIAGNOSIS\u000a\u000aCERTIFIES THAT HE/SHE HAS PERSONALLY REVIEWED THIS CASE AND CONFIRMED OR\u000a\u000aCORRECTED THE DIAGNOSIS.\u000a\u000a\u000a\u000aCLINICAL HISTORY\u000a\u000aS/P US-GUIDED BIOPSY OF 9 MM HYPERECHOIC MASS IN THE LEFT BREAST AT 10 O'CLOCK.\u000a\u000aDDX: FIBROADENOMA.\u000a\u000a\u000a\u000aSPECIMENS SUBMITTED:\u000a\u000aA: BREAST CORE BIOPSY, LEFT\u000a\u000a\u000a\u000a
p139
ag3
aa(lp140
VFINAL DIAGNOSIS\u000a\u000aCERTIFIES THAT HE/SHE HAS PERSONALLY REVIEWED THIS CASE AND CONFIRMED OR\u000a\u000aCORRECTED THE DIAGNOSIS.\u000a\u000a\u000a\u000aCLINICAL HISTORY\u000a\u000aS/P US-GUIDED BIOPSY OF 9 MM HYPERECHOIC MASS IN THE LEFT BREAST AT 10 O'CLOCK.\u000a\u000aDDX: FIBROADENOMA.\u000a\u000a\u000a\u000aSPECIMENS SUBMITTED:\u000a\u000aA: BREAST CORE BIOPSY, LEFT\u000a\u000a\u000a\u000a
p141
ag3
aa(lp142
VFINAL DIAGNOSIS\u000a\u000aCERTIFIES THAT HE/SHE HAS PERSONALLY REVIEWED THIS CASE AND CONFIRMED OR\u000a\u000aCORRECTED THE DIAGNOSIS.\u000a\u000a\u000a\u000aCLINICAL HISTORY\u000a\u000aSTATUS POST STEREOTACTIC CORE BIOPSY OF GROUPED CALCIFICATIONS IN THE UPPER\u000a\u000aINNER QUADRANT OF THE RIGHT BREAST.  THE CALCIFICATIONS ARE PRESENT IN THE\u000a\u000aCASSETTE.  DIFFERENTIAL DIAGNOSIS:  FIBROADENOMA VS FAT NECROSIS VS DCIS.\u000a\u000a\u000a\u000aSPECIMENS SUBMITTED:\u000a\u000aA: BREAST CORE BIOPSY, RIGHT UPPER INNER QUADRANT\u000a\u000a\u000a\u000a
p143
ag3
aa(lp144
VFINAL DIAGNOSIS\u000a\u000aCERTIFIES THAT HE/SHE HAS PERSONALLY REVIEWED THIS CASE AND CONFIRMED OR\u000a\u000aCORRECTED THE DIAGNOSIS.\u000a\u000a\u000a\u000aCLINICAL HISTORY\u000a\u000aSTATUS POST STEREOTACTIC CORE BIOPSY OF GROUPED CALCIFICATIONS IN THE UPPER\u000a\u000aINNER QUADRANT OF THE RIGHT BREAST.  THE CALCIFICATIONS ARE PRESENT IN THE\u000a\u000aCASSETTE.  DIFFERENTIAL DIAGNOSIS:  FIBROADENOMA VS FAT NECROSIS VS DCIS.\u000a\u000a\u000a\u000aSPECIMENS SUBMITTED:\u000a\u000aA: BREAST CORE BIOPSY, RIGHT UPPER INNER QUADRANT\u000a\u000a\u000a\u000a
p145
ag3
aa(lp146
VFINAL DIAGNOSIS\u000a\u000a\u000a\u000aA.  BREAST FNA BIOPSY, LEFT #1:\u000a\u000a\u000a\u000aSPECIMEN ADEQUACY:\u000a\u000aEVALUATION LIMITED BY SCANT CELLULARITY.\u000a\u000a\u000a\u000aINTERPRETATION:\u000a\u000aATYPICAL.\u000a\u000a\u000a\u000aDIAGNOSIS:\u000a\u000aFEW GROUPS OF VACUOLATED EPITHELIOID CELLS.\u000a\u000aFIBROADIPOSE TISSUE FRAGMENTS. (SEE NOTE).\u000a\u000a\u000a\u000aNOTE: SCATTERED GROUPS OF VACUOLATED EPITHELIOID CELLS ARE SEEN ON ONE OF THE\u000a\u000aAIR-DRIED, GIEMSA-STAINED SLIDES (A4). THOSE MAY REPRESENT HISTIOCYTES BUT THE\u000a\u000aSAMPLE IS SCANT, AND AN EPITHELIAL ORIGIN CANNOT BE EXCLUDED. SLIDES FROM THE\u000a\u000aPATIENT'S PRIOR DCIS (2006) ARE NOT AVAILABLE FOR REVIEW.\u000a\u000a\u000a\u000a\u000a\u000aB.  BREAST FNA BIOPSY, LEFT #2:\u000a\u000a\u000a\u000aSPECIMEN ADEQUACY:\u000a\u000aEVALUATION LIMITED BY SCANT CELLULARITY.\u000a\u000a\u000a\u000aINTERPRETATION:\u000a\u000aNO MALIGNANT CELLS IDENTIFIED.\u000a\u000a\u000a\u000aDIAGNOSIS:\u000a\u000aSCANT FIBROADIPOSE TISSUE FRAGMENTS ONLY. (SEE NOTE).\u000a\u000a\u000a\u000aNOTE: THE SAMPLE IS SCANT AND THE FINDINGS ESSENTIALLY NON-DIAGNOSTIC, WITHOUT\u000a\u000aEPITHELIAL CELL COMPONENT. CLINICAL CORRELATION IS NECESSARY TO ENSURE THAT THE\u000a\u000aSAMPLE IS REPRESENTATIVE OF THE LESION.\u000a\u000a\u000a\u000a\u000a\u000aTHIS CASE HAS BEEN REVIEWED BY DR. BRITTANY HOLMES, FELLOW IN CYTOPATHOLOGY.\u000a\u000a\u000a\u000aELECTRONICALLY SIGNED OUT BY:  ELENA F BRACHTEL MD\u000a\u000a\u000a\u000aMELISSA M. RING CT (ASCP) MBCM\u000a\u000a\u000a\u000aBY HIS/HER SIGNATURE ABOVE, THE PATHOLOGIST LISTED AS MAKING THE FINAL DIAGNOSIS\u000a\u000aCERTIFIES THAT HE/SHE HAS PERSONALLY REVIEWED THIS CASE AND CONFIRMED OR\u000a\u000aCORRECTED THE DIAGNOSIS.\u000a\u000a\u000a\u000a\u000a\u000a\u000a\u000a\u000a\u000aPROCEDURES/ADDENDA\u000a\u000a\u000a\u000aRAPID INTERPRETATION\u000a\u000aORDERED DATE: 11/25/2014\u000a\u000a\u000a\u000aA. BREAST FNA BIOPSY, LEFT #1:\u000a\u000aFNA RAPID INTERPRETATION:\u000a\u000a\u000a\u000aVACUOLATED DUCTAL EPITHELIUM AND FIBROADIPOSE TISSUE\u000a\u000a\u000a\u000aTHIS CASE HAS BEEN REVIEWED BY DR. LOU VAICKUS, FELLOW IN CYTOPATHOLOGY.\u000a\u000a\u000a\u000a\u000a\u000aB. BREAST FNA BIOPSY, LEFT #2:\u000a\u000aFNA RAPID INTERPRETATION:\u000a\u000a\u000a\u000aSCANT FIBROADIPOSE TISSUE, NON-DIAGNOSTIC\u000a\u000a\u000a\u000aTHIS CASE HAS BEEN REVIEWED BY DR. LOU VAICKUS, FELLOW IN CYTOPATHOLOGY.\u000a\u000a\u000a\u000a\u000a\u000a\u000a\u000a***ELECTRONICALLY SIGNED OUT BY:  IVAN A CHEBIB MD ON 11/26/2014 13:09***\u000a\u000a\u000a\u000aPATIENT EVALUATION AND MANAGEMENT (WITH INTERPRETATION)\u000a\u000aORDERED DATE: 11/25/2014\u000a\u000a\u000a\u000a\u000a\u000aCHIEF COMPLAINT: THIS 65 YEAR OLD MALE WAS REFERRED TO THE PATHOLOGY FINE NEEDLE\u000a\u000aASPIRATION BIOPSY SERVICE BY CONNIE ROCHE, MD FOR CONSULTATION AND DIAGNOSIS OF\u000a\u000aA LESION IN THE LEFT BREAST.\u000a\u000a\u000a\u000aCLINICAL HISTORY: HISTORY OF L DCIS WITH 2 LEFT BREAST NODULE.\u000a\u000a\u000a\u000a#1: PHYSICAL EXAM:  THE LEFT BREAST SHOWED A 0.8 X 0.4 CM NON-TENDER,\u000a\u000aWELL-DEFINED, OVOID AND FIRM MOBILE NODULE.\u000a\u000a\u000a\u000aASSESSMENT:  BASED ON THE CLINICAL HISTORY AND PHYSICAL EXAMINATION, AN FNAB IS\u000a\u000aWARRANTED.\u000a\u000a\u000a\u000aPROCEDURE: THE PROCEDURE AND POTENTIAL COMPLICATIONS WERE EXPLAINED TO THE\u000a\u000aPATIENT, WHO UNDERSTOOD THE PURPOSE, RISKS, AND BENEFITS OF THE PROCEDURE.  THE\u000a\u000aPATIENT CONFIRMED NAME, DATE OF BIRTH, LATERALITY, AND LESION TO BE ASPIRATED.\u000a\u000aWRITTEN CONSENT WAS OBTAINED.\u000a\u000a\u000a\u000aTHE BIOPSY PROCEDURE WAS PERFORMED BY PALPATION.\u000a\u000a\u000a\u000a2 ASPIRATES WERE PERFORMED USING 25 GAUGE NEEDLES WITH LOCAL ANESTHESIA AND\u000a\u000aWITHOUT COMPLICATIONS.\u000a\u000a3 SLIDES WERE STAINED FOR IMMEDIATE EVALUATION. ADDITIONAL TISSUE WAS SUBMITTED\u000a\u000aFOR FURTHER EVALUATION.\u000a\u000a\u000a\u000aPROCEDURE PERFORMED BY DR. L. VAICKUS M.D., SUPERVISED BY DR. I. CHEBIB M.D.\u000a\u000a\u000a\u000a#2: PHYSICAL EXAM: THE LEFT BREAST SHOWED A 0.4 X 0.2 CM NON-TENDER,\u000a\u000aWELL-DEFINED, ROUND, FIRM AND MOBILE NODULE.\u000a\u000a\u000a\u000aASSESSMENT:  BASED ON THE CLINICAL HISTORY AND PHYSICAL EXAMINATION, AN FNAB IS\u000a\u000aWARRANTED.\u000a\u000a\u000a\u000aTHE BIOPSY PROCEDURE WAS PERFORMED BY PALPATION.\u000a\u000a\u000a\u000a3 ASPIRATES WERE PERFORMED USING 23 AND 25 GAUGE WITHOUT LOCAL ANESTHESIA AND\u000a\u000aWITHOUT COMPLICATIONS.\u000a\u000a3 SLIDES WERE STAINED FOR IMMEDIATE EVALUATION.  ADDITIONAL TISSUE WAS SUBMITTED\u000a\u000aFOR FURTHER EVALUATION.\u000a\u000a\u000a\u000aPROCEDURE PERFORMED BY DR. L. VAICKUS M.D. AND DR. I. CHEBIB M.D.\u000a\u000a\u000a\u000aDISPOSITION: THE IMMEDIATE INTERPRETATION FINDINGS WERE NOT DISCUSSED WITH THE\u000a\u000aPATIENT. CONNIE ROCHE, N.P WAS NOTIFIED OF THE PRELIMINARY RESULTS BY E-MAIL AT\u000a\u000a12:00 P.M.\u000a\u000a\u000a\u000a\u000a\u000a\u000a\u000a\u000a\u000aTHE SIGNING PATHOLOGIST ATTESTS THAT HE/SHE PERFORMED THE PROCEDURE OR, IF\u000a\u000aPERFORMED BY A RESIDENT OR FELLOW, DIRECTED AND SUPERVISED THE FNA PROCEDURE AND\u000a\u000aWAS IMMEDIATELY AVAILABLE TO FURTHER ASSIST THE RESIDENT/FELLOW BEFORE, DURING\u000a\u000aAND AFTER THE PROCEDURE, AND HAS REVIEWED AND CONFIRMED THE INTERPRETATION OF\u000a\u000aSLIDES STAINED FOR IMMEDIATE EVALUATION.\u000a\u000a\u000a\u000a\u000a\u000a***ELECTRONICALLY SIGNED OUT BY:  IVAN A CHEBIB MD ON 11/26/2014 13:12***\u000a\u000a\u000a\u000aCLINICAL HISTORY\u000a\u000aHISTORY OF LEFT BREAST DCIS (2006) WITH 2 LEFT BREAST NODULES, MORE #1 MORE\u000a\u000aINFERIOR TO #2\u000a\u000a\u000a\u000a\u000a\u000a\u000a\u000aSPECIMEN SOURCE\u000a\u000aA: BREAST FNA BIOPSY, LEFT #1\u000a\u000aB: BREAST FNA BIOPSY, LEFT #2\u000a\u000a\u000a\u000a
p147
aVH
p148
aa(lp149
VFINAL DIAGNOSIS\u000a\u000a\u000a\u000aA.  BREAST FNA BIOPSY, LEFT:\u000a\u000a\u000a\u000aSPECIMEN ADEQUACY:\u000a\u000aSATISFACTORY FOR EVALUATION.\u000a\u000a\u000a\u000aINTERPRETATION:\u000a\u000aATYPICAL.\u000a\u000a\u000a\u000aDIAGNOSIS:\u000a\u000aSMALL SHEETS AND CLUSTERS OF DUCTAL EPITHELIAL CELLS OFTEN WITH ATTACHED\u000a\u000aMYOEPITHELIAL CELLS AND WITH FOCAL MILD EPITHELIAL ATYPIA IN A BACKGROUND OF\u000a\u000aSCATTERED STROMAL NUCLEI AND FIBROADIPOSE TISSUE, FAVOR A BENIGN LESION WITH\u000a\u000aFOCAL ATYPIA; SEE NOTE.\u000a\u000a\u000a\u000aNOTE: THE DIFFERENTIAL DIAGNOSIS INCLUDES A FIBROADENOMA OR A PAPILLARY LESION\u000a\u000aSUCH AS A PAPILLOMA. THE CASE WAS REVIEWED AT CYTOLOGY CONFERENCE.\u000a\u000a\u000a\u000a\u000a\u000a\u000a\u000aELECTRONICALLY SIGNED OUT BY:  ROSEMARY H TAMBOURET MD\u000a\u000a\u000a\u000aHEATHER GRANT SMITH, CT(ASCP)\u000a\u000a\u000a\u000aBY HIS/HER SIGNATURE ABOVE, THE PATHOLOGIST LISTED AS MAKING THE FINAL DIAGNOSIS\u000a\u000aCERTIFIES THAT HE/SHE HAS PERSONALLY REVIEWED THIS CASE AND CONFIRMED OR\u000a\u000aCORRECTED THE DIAGNOSIS.\u000a\u000a\u000a\u000a\u000a\u000a\u000a\u000a\u000a\u000aPROCEDURES/ADDENDA\u000a\u000aRAPID INTERPRETATION\u000a\u000a\u000a\u000aA. BREAST FNA BIOPSY, LEFT:\u000a\u000aFNA RAPID INTERPRETATION:\u000a\u000a\u000a\u000aCONSISTENT WITH FIBROADENOMA.\u000a\u000a\u000a\u000aTHIS CASE HAS BEEN REVIEWED BY DR. ROSEANN WU, FELLOW IN CYTOPATHOLOGY.\u000a\u000a\u000a\u000a\u000a\u000a\u000a\u000a***ELECTRONICALLY SIGNED OUT BY:  IVAN A CHEBIB MD ON 12/9/2013 11:17***\u000a\u000aPATIENT EVALUATION AND MANAGEMENT (WITH INTERPRETATION)\u000a\u000a\u000a\u000aCHIEF COMPLAINT: THIS 41 YEAR-OLD FEMALE WAS REFERRED TO THE FINE NEEDLE\u000a\u000aASPIRATION CLINIC BY DR. KEVIN HUGHES FOR CONSULTATION AND DIAGNOSIS OF A MASS\u000a\u000aIN THE LEFT BREAST.\u000a\u000a\u000a\u000aCLINICAL HISTORY: 41 YEAR-OLD FEMALE WITH LEFT BREAST MASS.\u000a\u000a\u000a\u000aREVIEW OF SYMPTOMS:\u000a\u000aALLERGY TO LIDOCAINE: NO.\u000a\u000aMEDICATIONS/ANTICOAGULANTS: PATIENT IS NOT ON BLOOD THINNERS.\u000a\u000a\u000a\u000aSOCIAL HISTORY:\u000a\u000aTOBACCO: NO.\u000a\u000aALCOHOL USE: NO.\u000a\u000a\u000a\u000aPHYSICAL EXAMINATION: LATERALITY WAS ESTABLISHED ACCORDING TO DEPARTMENTAL\u000a\u000aUNIVERSAL PROTOCOL. EXAMINATION OF THE LEFT BREAST REVEALS A 1.0 CM ROUNDED,\u000a\u000aRUBBERY MASS UNDERLYING THE AREOLA.\u000a\u000a\u000a\u000aASSESSMENT: BASED ON THE CLINICAL HISTORY AND PHYSICAL EXAMINATION, AN FNAB IS\u000a\u000aWARRANTED.\u000a\u000a\u000a\u000aPROCEDURE: THE PROCEDURE AND COMPLICATIONS WERE EXPLAINED TO THE PATIENT AND\u000a\u000aWRITTEN CONSENT WAS OBTAINED. ULTRASOUND WAS USED FOR EVALUATION OF THE LESION.\u000a\u000aULTRASOUND REVEALED 0.8 X 0.6 CM HYPOECHOIC, ROUNDED MASS.\u000a\u000aTWO ASPIRATES WERE PERFORMED USING 23 GAUGE NEEDLES WITH ANESTHESIA AND WITHOUT\u000a\u000aCOMPLICATIONS. 3 SLIDES WERE STAINED FOR IMMEDIATE EVALUATION; ADDITIONAL TISSUE\u000a\u000aWAS SUBMITTED FOR FURTHER EVALUATION.\u000a\u000a\u000a\u000aDISPOSITION:  THE IMMEDIATE INTERPRETATION FINDINGS WERE NOT DISCUSSED WITH THE\u000a\u000aPATIENT. THE PRELIMINARY RESULTS WERE COMMUNICATED TO DR. HUGHES IN PERSON.\u000a\u000a\u000a\u000a\u000a\u000a\u000a\u000aTHE SIGNING PATHOLOGIST ATTESTS THAT HE/SHE PERFORMED THE PROCEDURE OR, IF\u000a\u000aPERFORMED BY A RESIDENT OR FELLOW, DIRECTED AND SUPERVISED THE FNA PROCEDURE AND\u000a\u000aWAS IMMEDIATELY AVAILABLE TO FURTHER ASSIST THE RESIDENT/FELLOW BEFORE, DURING\u000a\u000aAND AFTER THE PROCEDURE, AND HAS REVIEWED AND CONFIRMED THE INTERPRETATION OF\u000a\u000aSLIDES STAINED FOR IMMEDIATE EVALUATION.\u000a\u000a\u000a\u000a\u000a\u000a\u000a\u000a***ELECTRONICALLY SIGNED OUT BY:  IVAN A CHEBIB MD ON 12/9/2013 11:16***\u000a\u000a\u000a\u000aCLINICAL HISTORY\u000a\u000a\u000a\u000a41 YEAR-OLD FEMALE WITH LEFT BREAST MASS FOUND BY PCP.\u000a\u000a\u000a\u000a\u000a\u000a\u000a\u000aSPECIMEN SOURCE\u000a\u000aA: BREAST FNA BIOPSY, LEFT\u000a\u000a\u000a\u000a
p150
ag148
aa(lp151
VFINAL DIAGNOSIS\u000a\u000a\u000a\u000aA.  BREAST FNA BIOPSY, RIGHT:\u000a\u000a\u000a\u000aSPECIMEN ADEQUACY:\u000a\u000aSATISFACTORY FOR EVALUATION.\u000a\u000a\u000a\u000aINTERPRETATION:\u000a\u000aATYPICAL.\u000a\u000a\u000a\u000aDIAGNOSIS:\u000a\u000a- ATYPICAL DUCTAL CELLS, IN THE BACKGROUND OF APOCRINE METAPLASIA AND MYXOID\u000a\u000aMATERIAL (SEE NOTE).\u000a\u000a\u000a\u000a\u000a\u000aB.  BREAST CELLBLOCK, RIGHT:\u000a\u000a- ACELLULAR, NON-DIAGNOSTIC.\u000a\u000a\u000a\u000a\u000a\u000aNOTE: CYTOLOGY SMEARS SHOW NUMEROUS COHESIVE CLUSTERS OF DUCTAL EPITHELIAL CELLS\u000a\u000aWITH ONCOCYTIC FEATURES, SUGGESTIVE OF APOCRINE METAPLASIA, IN THE BACKGROUND OF\u000a\u000aABUNDANT MYXOID-TYPE MATERIAL. MANY GROUPS APPEAR TO HAVE SCATTERED SMALL\u000a\u000aMYOEPITHELIAL CELLS ASSOCIATED WITH THEM. HOWEVER, THERE ARE SOME GROUPS WITH\u000a\u000aCROWDED CELLS WITH ENLARGED NUCLEI, SLIGHTLY IRREGULAR NUCLEAR CONTOURS, AND\u000a\u000aSMALL BUT PROMINENT NUCLEOLI. THESE FEATURES ARE ATYPICAL AND CLINICAL AND\u000a\u000aRADIOLOGIC CORRELATION IS REQUIRED AND CORE BIOPSY MAY BE NEEDED FOR A MORE\u000a\u000aDEFINITIVE DIAGNOSIS.\u000a\u000a\u000a\u000aTHIS CASE HAS BEEN REVIEWED BY DR. E. BRACHTEL WHO AGREES WITH THE\u000a\u000aINTERPRETATION ABOVE.\u000a\u000a\u000a\u000a\u000a\u000aELECTRONICALLY SIGNED OUT BY:  IVAN A CHEBIB MD\u000a\u000a\u000a\u000aMELISSA M. RING CT (ASCP) MBCM\u000a\u000a\u000a\u000aBY HIS/HER SIGNATURE ABOVE, THE PATHOLOGIST LISTED AS MAKING THE FINAL DIAGNOSIS\u000a\u000aCERTIFIES THAT HE/SHE HAS PERSONALLY REVIEWED THIS CASE AND CONFIRMED OR\u000a\u000aCORRECTED THE DIAGNOSIS.\u000a\u000a\u000a\u000a\u000a\u000a\u000a\u000a\u000a\u000aPROCEDURES/ADDENDA\u000a\u000a\u000a\u000aRAPID INTERPRETATION\u000a\u000aORDERED DATE: 12/5/2014\u000a\u000a\u000a\u000aA. BREAST FNA BIOPSY, RIGHT:\u000a\u000aFNA RAPID INTERPRETATION:\u000a\u000a\u000a\u000aAMORPHOUS DEBRIS AND SCANT EPITHELIAL CELLS\u000a\u000a\u000a\u000aTHIS CASE HAS BEEN REVIEWED BY DR. BRITTANY HOLMES, FELLOW IN CYTOPATHOLOGY.\u000a\u000a\u000a\u000a\u000a\u000a***ELECTRONICALLY SIGNED OUT BY:  MARTHA BISHOP PITMAN MD ON 12/8/2014 09:55***\u000a\u000a\u000a\u000aPATIENT EVALUATION AND MANAGEMENT (WITH INTERPRETATION)\u000a\u000aORDERED DATE: 12/8/2014\u000a\u000a\u000a\u000a\u000a\u000aCHIEF COMPLAINT: THIS 67 YEAR OLD FEMALE WAS REFERRED TO THE PATHOLOGY FINE\u000a\u000aNEEDLE ASPIRATION BIOPSY SERVICE BY BARBARA FEE, NP FOR CONSULTATION AND\u000a\u000aDIAGNOSIS OF A LESION IN THE RIGHT BREAST.\u000a\u000a\u000a\u000aCLINICAL HISTORY: HISTORY OF LEFT INVASIVE DUCTAL CARCINOMA AND RIGHT INVASIVE\u000a\u000aLOBULAR CARCINOMA.  NOW WITH NODULAR THICKENING OF RIGHT BREAST THAT PULLS WHEN\u000a\u000aTHE PATIENT LIFTS HER ARM.\u000a\u000a\u000a\u000aPHYSICAL EXAM:  THE RIGHT BREAST AT 9:00 SHOWED A CM TENDER, ILL-DEFINED, OVOID,\u000a\u000aFIRM AND MOBILE RIDGE. THE AREA WAS OUTLINED BY MARKER BY NP FEE. THE AXILLARY\u000a\u000aWAS FREE OF PALPABLE MASSES. THE SKIN WAS FREE OF RETRACTION AND DISCOLORATION.\u000a\u000a\u000a\u000aULTRASOUND WAS USED TO EVALUATE THE LESION AND SHOWED A 1.2 X 0.7 CM LESION THAT\u000a\u000aWAS ILL-DEFINED, OVOID, SOLID, HETEROGENEOUSLY HYPOECHOIC AND WITHOUT\u000a\u000aSIGNIFICANT INTERNAL VASCULARITY.\u000a\u000a\u000a\u000aASSESSMENT:  BASED ON THE CLINICAL HISTORY AND PHYSICAL EXAMINATION, AN FNAB IS\u000a\u000aWARRANTED.\u000a\u000a\u000a\u000aPROCEDURE: THE PROCEDURE AND POTENTIAL COMPLICATIONS WERE EXPLAINED TO THE\u000a\u000aPATIENT, WHO UNDERSTOOD THE PURPOSE, RISKS, AND BENEFITS OF THE PROCEDURE.  THE\u000a\u000aPATIENT CONFIRMED NAME, DATE OF BIRTH, LATERALITY, AND LESION TO BE ASPIRATED.\u000a\u000aWRITTEN CONSENT WAS OBTAINED.\u000a\u000a\u000a\u000aTHE BIOPSY PROCEDURE WAS PERFORMED BY PALPATION.\u000a\u000a\u000a\u000a3 ASPIRATES WERE PERFORMED USING 23 AND 25 GAUGE NEEDLES WITH LOCAL ANESTHESIA\u000a\u000aAND WITHOUT COMPLICATIONS.\u000a\u000a2 SLIDES WERE STAINED FOR IMMEDIATE EVALUATION. ADDITIONAL TISSUE WAS SUBMITTED\u000a\u000aFOR FURTHER EVALUATION.\u000a\u000a\u000a\u000aTHE PROCEDURE WAS PERFORMED BY MARTHA B. PITMAN, M,D, AND BRITTANY HOLMES, M.D.\u000a\u000a\u000a\u000aDISPOSITION: THE IMMEDIATE INTERPRETATION FINDINGS WERE DISCUSSED WITH THE\u000a\u000aPATIENT. BARBARA FEE, NP WAS NOTIFIED OF THE PRELIMINARY RESULTS BY E-MAIL AT\u000a\u000a2:45 P.M.\u000a\u000a\u000a\u000a\u000a\u000a\u000a\u000a\u000a\u000aTHE SIGNING PATHOLOGIST ATTESTS THAT HE/SHE PERFORMED THE PROCEDURE OR, IF\u000a\u000aPERFORMED BY A RESIDENT OR FELLOW, DIRECTED AND SUPERVISED THE FNA PROCEDURE AND\u000a\u000aWAS IMMEDIATELY AVAILABLE TO FURTHER ASSIST THE RESIDENT/FELLOW BEFORE, DURING\u000a\u000aAND AFTER THE PROCEDURE, AND HAS REVIEWED AND CONFIRMED THE INTERPRETATION OF\u000a\u000aSLIDES STAINED FOR IMMEDIATE EVALUATION.\u000a\u000a\u000a\u000a\u000a\u000a\u000a\u000a***ELECTRONICALLY SIGNED OUT BY:  MARTHA BISHOP PITMAN MD ON 12/8/2014 09:57***\u000a\u000a\u000a\u000aCLINICAL HISTORY\u000a\u000aHISTORY OF LEFT BREAST INVASIVE DUCTAL CARCINOMA, RIGHT BREAST INVASIVE LOBULAR\u000a\u000aCARCINOMA; NOW WITH RIGHT BREAST AREA OF THICKENING THAT PULLS WHEN PATIENT\u000a\u000aLIFTS ARM. 2.5 CM FIRM, MOBILE MASS. INDETERMINANT ON US\u000a\u000a\u000a\u000a\u000a\u000a\u000a\u000aSPECIMEN SOURCE\u000a\u000aA: BREAST FNA BIOPSY, RIGHT\u000a\u000aB: BREAST CELLBLOCK, RIGHT\u000a\u000a\u000a\u000a
p152
ag148
aa(lp153
VFINAL DIAGNOSIS\u000a\u000a\u000a\u000aA.  BREAST FNA BIOPSY, RIGHT:\u000a\u000a\u000a\u000aSPECIMEN ADEQUACY:\u000a\u000aSATISFACTORY FOR EVALUATION.\u000a\u000a\u000a\u000aINTERPRETATION:\u000a\u000aNO MALIGNANT CELLS IDENTIFIED.\u000a\u000a\u000a\u000aDIAGNOSIS:\u000a\u000aA FEW GROUPS OF BENIGN-APPEARING DUCTAL CELLS AND MYOEPITHELIAL CELLS.\u000a\u000aFIBROADIPOSE TISSUE FRAGMENTS.\u000a\u000a\u000a\u000a\u000a\u000a\u000a\u000aELECTRONICALLY SIGNED OUT BY:  ELENA F BRACHTEL MD\u000a\u000a\u000a\u000aPETER BROWN, CT(ASCP)MB\u000a\u000a\u000a\u000aBY HIS/HER SIGNATURE ABOVE, THE PATHOLOGIST LISTED AS MAKING THE FINAL DIAGNOSIS\u000a\u000aCERTIFIES THAT HE/SHE HAS PERSONALLY REVIEWED THIS CASE AND CONFIRMED OR\u000a\u000aCORRECTED THE DIAGNOSIS.\u000a\u000a\u000a\u000a\u000a\u000a\u000a\u000a\u000a\u000aPROCEDURES/ADDENDA\u000a\u000a\u000a\u000aRAPID INTERPRETATION\u000a\u000aORDERED DATE: 10/6/2015\u000a\u000a\u000a\u000aA. BREAST FNA BIOPSY, RIGHT:\u000a\u000aFNA RAPID INTERPRETATION:\u000a\u000a\u000a\u000aBENIGN DUCTAL EPITHELIUM AND FIBROADIPOSE TISSUE.\u000a\u000a\u000a\u000aTHIS CASE HAS BEEN REVIEWED BY DR. OMONIGHO AISAGBONHI, FELLOW IN CYTOPATHOLOGY.\u000a\u000a\u000a\u000a\u000a\u000a***ELECTRONICALLY SIGNED OUT BY:  ROSEMARY H TAMBOURET MD ON 10/8/2015 15:20***\u000a\u000a\u000a\u000aPATIENT EVALUATION AND MANAGEMENT (WITH INTERPRETATION)\u000a\u000aORDERED DATE: 10/7/2015\u000a\u000a\u000a\u000aCHIEF COMPLAINT: THIS 48 YEAR OLD FEMALE WAS REFERRED TO THE PATHOLOGY FINE\u000a\u000aNEEDLE ASPIRATION BIOPSY SERVICE FOR CONSULTATION AND DIAGNOSIS IN THE RIGHT\u000a\u000aBREAST BY ERIN SULLIVAN, N.P.\u000a\u000a\u000a\u000aCLINICAL HISTORY: STATUS-POST EXCISIONAL BIOPSY OF RIGHT BREAST LESION\u000a\u000a(ADH/LCIS) IN 2014; NOW WITH RIGHT BREAST NODULE AT 9-10 O'CLOCK, 4 CM FROM\u000a\u000aNIPPLE.\u000a\u000a\u000a\u000aREVIEW OF CONSTITUTIONAL SYMPTOMS:  GENERALLY FEELING WELL.\u000a\u000a\u000a\u000aPHYSICAL EXAM: CONSTITUTIONAL: THE PATIENT APPEARED WELL-DEVELOPED,\u000a\u000aWELL-NOURISHED, AND IN NO ACUTE DISTRESS.\u000a\u000a\u000a\u000aTHE RIGHT BREAST SHOWED A 1.5 CM TENDER AND FIRM NODULE.\u000a\u000a\u000a\u000aASSESSMENT:  BASED ON THE CLINICAL HISTORY AND PHYSICAL EXAMINATION, AN FNAB IS\u000a\u000aWARRANTED.\u000a\u000a\u000a\u000aPROCEDURE: THE PROCEDURE AND POTENTIAL COMPLICATIONS WERE EXPLAINED TO THE\u000a\u000aPATIENT, WHO UNDERSTOOD THE PURPOSE, RISKS, AND BENEFITS OF THE PROCEDURE.  THE\u000a\u000aPATIENT CONFIRMED NAME, DATE OF BIRTH, LATERALITY, AND LESION TO BE ASPIRATED.\u000a\u000aWRITTEN CONSENT WAS OBTAINED.\u000a\u000a\u000a\u000aTHE BIOPSY PROCEDURE WAS PERFORMED BY PALPATION.\u000a\u000a\u000a\u000a1 ASPIRATE WAS PERFORMED USING 25 GAUGE NEEDLES WITH LOCAL ANESTHESIA AND\u000a\u000aWITHOUT COMPLICATIONS.\u000a\u000a1 SLIDE WAS STAINED FOR IMMEDIATE EVALUATION. ADDITIONAL TISSUE WAS SUBMITTED\u000a\u000aFOR FURTHER EVALUATION.\u000a\u000a\u000a\u000aTHE PROCEDURE WAS PERFORMED BY: OMONIGHO AISAGBONHI, M.D.\u000a\u000a\u000a\u000aDISPOSITION: THE IMMEDIATE INTERPRETATION WAS DISCUSSED WITH THE PATIENT.  ERIN\u000a\u000aSULLIVAN, N.P WAS NOTIFIED OF THE PRELIMINARY RESULTS BY E-MAIL AT 4:12 P.M.\u000a\u000a\u000a\u000a\u000a\u000a\u000a\u000aTHE SIGNING PATHOLOGIST ATTESTS THAT HE/SHE PERFORMED THE PROCEDURE OR, IF\u000a\u000aPERFORMED BY A RESIDENT OR FELLOW, DIRECTED AND SUPERVISED THE FNA PROCEDURE AND\u000a\u000aWAS IMMEDIATELY AVAILABLE TO FURTHER ASSIST THE RESIDENT/FELLOW BEFORE, DURING\u000a\u000aAND AFTER THE PROCEDURE, AND HAS REVIEWED AND CONFIRMED THE INTERPRETATION OF\u000a\u000aSLIDES STAINED FOR IMMEDIATE EVALUATION.\u000a\u000a\u000a\u000a\u000a\u000a***ELECTRONICALLY SIGNED OUT BY:  ROSEMARY H TAMBOURET MD ON 10/8/2015 15:20***\u000a\u000a\u000a\u000aCLINICAL HISTORY\u000a\u000aSTATUS POST EXCISIONAL BIOPSY RIGHT BREAST IN 2014. NOW WITH NODULE IN RIGHT\u000a\u000aBREAST AT 9-10:00, 4 CM FROM NIPPLE, LATERAL TO INCISION, TENDER TO PALPATION.\u000a\u000a\u000a\u000a\u000a\u000a\u000a\u000aSPECIMEN SOURCE\u000a\u000aA: BREAST FNA BIOPSY, RIGHT\u000a\u000a\u000a\u000a
p154
ag148
aa(lp155
VFINAL DIAGNOSIS\u000a\u000aCERTIFIES THAT HE/SHE HAS PERSONALLY REVIEWED THIS CASE AND CONFIRMED OR\u000a\u000aCORRECTED THE DIAGNOSIS.\u000a\u000a\u000a\u000a\u000a\u000aCLINICAL HISTORY\u000a\u000a\u000a\u000a52 YEAR OLD FEMALE WITH RIGHT BREAST CALCIFICATIONS.  CONSIDER DUCTAL CARCINOMA\u000a\u000aIN-SITU VERSUS OTHER.\u000a\u000a\u000a\u000aSPECIMENS SUBMITTED:\u000a\u000aA: BREAST CORE BIOPSY, RIGHT\u000a\u000a\u000a\u000a
p156
ag148
aa(lp157
VFINAL DIAGNOSIS\u000a\u000aCERTIFIES THAT HE/SHE HAS PERSONALLY REVIEWED THIS CASE AND CONFIRMED OR\u000a\u000aCORRECTED THE DIAGNOSIS.\u000a\u000a\u000a\u000a\u000a\u000aCLINICAL HISTORY\u000a\u000a1 - PATIENT WITH ARCHITECTURAL DISTORTION IN THE LEFT BREAST.  ? RADIAL SCAR VS\u000a\u000aIDC.  2 - PATIENT ALSO HAS AN ADDITIONAL HYPOECHOIC MASS IN THE LEFT BREAST.  ?\u000a\u000aCYST VS OTHER.\u000a\u000a\u000a\u000aSPECIMENS SUBMITTED:\u000a\u000aA: BREAST CORE BIOPSY, LEFT (ARCHITECTURAL DISTORTION)\u000a\u000aB: BREAST CORE BIOPSY, LEFT (HYPOECHOIC MASS)\u000a\u000a\u000a\u000a
p158
ag148
aa(lp159
VFINAL DIAGNOSIS\u000a\u000aCERTIFIES THAT HE/SHE HAS PERSONALLY REVIEWED THIS CASE AND CONFIRMED OR\u000a\u000aCORRECTED THE DIAGNOSIS.\u000a\u000a\u000a\u000a\u000a\u000aCLINICAL HISTORY\u000a\u000a24 YEAR OLD FEMALE WITH SPICULATED LEFT BREAST HYPOECHOIC MASS, ? IDC VS. RADIAL\u000a\u000aSCAR.\u000a\u000a\u000a\u000aSPECIMENS SUBMITTED:\u000a\u000aA: BREAST CORE BIOPSY, LEFT\u000a\u000a\u000a\u000a
p160
ag148
aa(lp161
VFINAL DIAGNOSIS\u000a\u000aCERTIFIES THAT HE/SHE HAS PERSONALLY REVIEWED THIS CASE AND CONFIRMED OR\u000a\u000aCORRECTED THE DIAGNOSIS.\u000a\u000a\u000a\u000a\u000a\u000aCLINICAL HISTORY\u000a\u000a28 YEAR OLD FEMALE WITH A STRONG FAMILY HISTORY OF BREAST CANCER, PRESENTS FOR\u000a\u000aULTRASOUND GUIDED CORE BIOPSY OF 3 MASSES  - 2 IN THE LEFT AND 1 ON THE RIGHT.\u000a\u000a\u000a\u000aSPECIMENS SUBMITTED:\u000a\u000aA: BREAST CORE BIOPSY, LEFT 3:00\u000a\u000aB: BREAST CORE BIOPSY, LEFT 4:30\u000a\u000aC: BREAST CORE BIOPSY, RIGHT 3:00\u000a\u000a\u000a\u000a
p162
ag148
aa(lp163
VFINAL DIAGNOSIS\u000a\u000aCERTIFIES THAT HE/SHE HAS PERSONALLY REVIEWED THIS CASE AND CONFIRMED OR\u000a\u000aCORRECTED THE DIAGNOSIS.\u000a\u000a\u000a\u000a\u000a\u000aCLINICAL HISTORY\u000a\u000a28 YEAR OLD FEMALE WITH LOBULATED HYPOECHOIC MASS IN THE LEFT BREAST AT 4\u000a\u000aO'CLOCK, ? FIBROADENOMA, PASH, PHYLLOIDES.\u000a\u000a\u000a\u000aSPECIMENS SUBMITTED:\u000a\u000aA: BREAST CORE BIOPSY, LEFT\u000a\u000a\u000a\u000a
p164
ag148
aa(lp165
VFINAL DIAGNOSIS\u000a\u000aCERTIFIES THAT HE/SHE HAS PERSONALLY REVIEWED THIS CASE AND CONFIRMED OR\u000a\u000aCORRECTED THE DIAGNOSIS.\u000a\u000a\u000a\u000a\u000a\u000aCLINICAL HISTORY\u000a\u000a32 Y/O FEMALE WITH LEFT BREAST CALCIFICATIONS AT 12:00. H/O FIBROADENOMA, LEFT\u000a\u000aBREAST 2009.  ? FCC, SCLEROSING ADENOSIS, DCIS.\u000a\u000a\u000a\u000aSPECIMENS SUBMITTED:\u000a\u000aA: BREAST CORE BIOPSY, LEFT\u000a\u000a\u000a\u000a
p166
ag148
aa(lp167
VFINAL DIAGNOSIS\u000a\u000aCERTIFIES THAT HE/SHE HAS PERSONALLY REVIEWED THIS CASE AND CONFIRMED OR\u000a\u000aCORRECTED THE DIAGNOSIS.\u000a\u000a\u000a\u000a\u000a\u000aCLINICAL HISTORY\u000a\u000a32 YEAR OLD FEMALE WITH 1.3 CM OVAL HYPOECHOIC MASS IN THE RIGHT BREAST AT 1\u000a\u000aO'CLOCK 4 CM FN, INITIALLY IDENTIFIED ON A CHEST CT.  ?FIBROADENOMA VS.\u000a\u000aHAMARTOMA VS. OTHER.\u000a\u000a\u000a\u000aSPECIMENS SUBMITTED:\u000a\u000aA: BREAST CORE BIOPSY, RIGHT\u000a\u000a\u000a\u000a
p168
ag148
aa(lp169
VFINAL DIAGNOSIS\u000a\u000aCERTIFIES THAT HE/SHE HAS PERSONALLY REVIEWED THIS CASE AND CONFIRMED OR\u000a\u000aCORRECTED THE DIAGNOSIS.\u000a\u000a\u000a\u000a\u000a\u000aCLINICAL HISTORY\u000a\u000a35 YEAR OLD FEMALE WITH MAMMOGRAM \u005cT\u005c ULTRASOUND \u005cT\u005c SHOW ARCHITECTURAL\u000a\u000aDISTORTION IN THE UPPER BREAST AT 12 O'CLOCK.  US CORE BIOPSY OF 0.6 CM\u000a\u000aIRREGULAR HYPOECHOIC AREA AT 12 O'CLOCK ? RADIAL SCAR VERSUS INFILTRATING DUCTAL\u000a\u000aCARCINOMA VERSUS FIBROCYSTIC CHANGES\u000a\u000a\u000a\u000aSPECIMENS SUBMITTED:\u000a\u000aA: BREAST CORE BIOPSY, LEFT\u000a\u000a\u000a\u000a
p170
ag148
aa(lp171
VFINAL DIAGNOSIS\u000a\u000aCERTIFIES THAT HE/SHE HAS PERSONALLY REVIEWED THIS CASE AND CONFIRMED OR\u000a\u000aCORRECTED THE DIAGNOSIS.\u000a\u000a\u000a\u000a\u000a\u000aCLINICAL HISTORY\u000a\u000a37 YEAR OLD WITH PRIOR HISTORY OF RIGHT BREAST IDC NOW WITH ENHANCING MASS IN\u000a\u000aTHE RIGHT OUTER BREAST.  ? FIBROADENOMA, PASH, IDC.\u000a\u000a\u000a\u000aSPECIMENS SUBMITTED:\u000a\u000aA: BREAST CORE BIOPSY, RIGHT OUTER\u000a\u000a\u000a\u000a
p172
ag148
aa(lp173
VFINAL DIAGNOSIS\u000a\u000aCERTIFIES THAT HE/SHE HAS PERSONALLY REVIEWED THIS CASE AND CONFIRMED OR\u000a\u000aCORRECTED THE DIAGNOSIS.\u000a\u000a\u000a\u000a\u000a\u000aCLINICAL HISTORY\u000a\u000a39 YEAR OLD FEMALE WITH HYPOECHOIC MASS IN LEFT BREAST, ? INVASIVE DUCTAL\u000a\u000aCARCINOMA VERSUS RADIAL SCAR.\u000a\u000a\u000a\u000aSPECIMENS SUBMITTED:\u000a\u000aA: BREAST CORE BIOPSY, LEFT\u000a\u000a\u000a\u000a
p174
ag148
aa(lp175
VFINAL DIAGNOSIS\u000a\u000aCERTIFIES THAT HE/SHE HAS PERSONALLY REVIEWED THIS CASE AND CONFIRMED OR\u000a\u000aCORRECTED THE DIAGNOSIS.\u000a\u000a\u000a\u000a\u000a\u000aCLINICAL HISTORY\u000a\u000a40 YEAR OLD FEMALE WITH FAMILY HISTORY OF BREAST CANCER, FOUND TO HAVE\u000a\u000aINDETERMINATE CALCIFICATIONS IN THE UPPER QUADRANT OF LEFT BREAST.\u000a\u000aCALCIFICATIONS IN CASSETTE.  CONSIDER BENIGN CALCIFICATIONS VERSUS DUCTAL\u000a\u000aCARCINOMA IN SITU.\u000a\u000a\u000a\u000aSPECIMENS SUBMITTED:\u000a\u000aA: BREAST CORE BIOPSY, LEFT\u000a\u000a\u000a\u000a
p176
ag148
aa(lp177
VFINAL DIAGNOSIS\u000a\u000aCERTIFIES THAT HE/SHE HAS PERSONALLY REVIEWED THIS CASE AND CONFIRMED OR\u000a\u000aCORRECTED THE DIAGNOSIS.\u000a\u000a\u000a\u000a\u000a\u000aCLINICAL HISTORY\u000a\u000a40 YEAR OLD FEMALE WITH LEFT BREAST CALCIFICATIONS IN THE 6 O'CLOCK POSITION,\u000a\u000aPRESENTS FOR STEREOTACTIC BIOPSY.  CALCIFICATIONS ARE IN THE RADIOGRAPHED\u000a\u000aSPECIMEN.\u000a\u000a\u000a\u000aSPECIMENS SUBMITTED:\u000a\u000aA: BREAST CORE BIOPSY, LEFT\u000a\u000a\u000a\u000a
p178
ag148
aa(lp179
VFINAL DIAGNOSIS\u000a\u000aCERTIFIES THAT HE/SHE HAS PERSONALLY REVIEWED THIS CASE AND CONFIRMED OR\u000a\u000aCORRECTED THE DIAGNOSIS.\u000a\u000a\u000a\u000a\u000a\u000aCLINICAL HISTORY\u000a\u000a40 YEAR OLD WITH A CLUSTER OF CALCIFICATIONS IN THE LEFT BREAST.  THE\u000a\u000aCALCIFICATIONS ARE IN THE CASSETTE.  ? FIBROCYSTIC CHANGE VERSUS DUCTAL\u000a\u000aCARCINOMA IN-SITU VERSUS OTHER.\u000a\u000a\u000a\u000aSPECIMENS SUBMITTED:\u000a\u000aA: BREAST CORE BIOPSY\u000a\u000a\u000a\u000a
p180
ag148
aa(lp181
VFINAL DIAGNOSIS\u000a\u000aCERTIFIES THAT HE/SHE HAS PERSONALLY REVIEWED THIS CASE AND CONFIRMED OR\u000a\u000aCORRECTED THE DIAGNOSIS.\u000a\u000a\u000a\u000a\u000a\u000aCLINICAL HISTORY\u000a\u000a41 YEAR OLD FEMALE WITH INDETERMINANT CALCIFICATIONS IN THE LEFT BREAST.\u000a\u000aX-RAYED CALCIFICATIONS ARE IN THE CASSETTE. ? FAT NECROSIS (OIL CYST) VS OTHER.\u000a\u000a\u000a\u000aSPECIMENS SUBMITTED:\u000a\u000aA: BREAST CORE BIOPSY, LEFT\u000a\u000a\u000a\u000a
p182
ag148
aa(lp183
VFINAL DIAGNOSIS\u000a\u000aCERTIFIES THAT HE/SHE HAS PERSONALLY REVIEWED THIS CASE AND CONFIRMED OR\u000a\u000aCORRECTED THE DIAGNOSIS.\u000a\u000a\u000a\u000a\u000a\u000aCLINICAL HISTORY\u000a\u000a41 YEAR OLD FEMALE WITH OVAL HYPOECHOIC MASS, FOR ULTRASOUND GUIDED BIOPSY.\u000a\u000a\u000a\u000aSPECIMENS SUBMITTED:\u000a\u000aA: BREAST MASS CORE BIOPSY, LEFT\u000a\u000a\u000a\u000a
p184
ag148
aa(lp185
VFINAL DIAGNOSIS\u000a\u000aCERTIFIES THAT HE/SHE HAS PERSONALLY REVIEWED THIS CASE AND CONFIRMED OR\u000a\u000aCORRECTED THE DIAGNOSIS.\u000a\u000a\u000a\u000a\u000a\u000aCLINICAL HISTORY\u000a\u000a41 YEAR-OLD WITH A LEFT BREAST MASS. COMPLICATED CYST VS PHYLLODES VS FAD\u000a\u000a\u000a\u000aSPECIMENS SUBMITTED:\u000a\u000aA: BREAST CORE BIOPSY, LEFT\u000a\u000a\u000a\u000a
p186
ag148
aa(lp187
VFINAL DIAGNOSIS\u000a\u000aCERTIFIES THAT HE/SHE HAS PERSONALLY REVIEWED THIS CASE AND CONFIRMED OR\u000a\u000aCORRECTED THE DIAGNOSIS.\u000a\u000a\u000a\u000a\u000a\u000aCLINICAL HISTORY\u000a\u000a42 YEAR OLD FEMALE WITH CIRCUMSCRIBED HYPOECHOIC MASS IN THE RIGHT BREAST.  ?\u000a\u000aFIBROADENOMA VERSUS CYST WALL VERSUS OTHER.\u000a\u000a\u000a\u000aSPECIMENS SUBMITTED:\u000a\u000aA: BREAST CORE BIOPSY, RIGHT\u000a\u000a\u000a\u000a
p188
ag148
aa(lp189
VFINAL DIAGNOSIS\u000a\u000aCERTIFIES THAT HE/SHE HAS PERSONALLY REVIEWED THIS CASE AND CONFIRMED OR\u000a\u000aCORRECTED THE DIAGNOSIS.\u000a\u000a\u000a\u000a\u000a\u000aCLINICAL HISTORY\u000a\u000a42 YEAR OLD FEMALE WITH HYPOECHOIC MASS-LIKE AREA 4 O'CLOCK, 3.0 CM FROM NIPPLE.\u000a\u000aCONSIDER FIBROCYSTIC CHANGE, INVASIVE DUCTAL CARCINOMA VERSUS OTHER.\u000a\u000a\u000a\u000aSPECIMENS SUBMITTED:\u000a\u000aA: BREAST CORE BIOPSY, RIGHT\u000a\u000a\u000a\u000a
p190
ag148
aa(lp191
VFINAL DIAGNOSIS\u000a\u000aCERTIFIES THAT HE/SHE HAS PERSONALLY REVIEWED THIS CASE AND CONFIRMED OR\u000a\u000aCORRECTED THE DIAGNOSIS.\u000a\u000a\u000a\u000a\u000a\u000aCLINICAL HISTORY\u000a\u000a42 YEAR OLD FEMALE WITH INDETERMINATE CALCIFICATIONS IN THE LEFT OUTER BREAST.\u000a\u000a? DYSTROPHIC CALCIFICATIONS VERSUS DUCTAL CARCINOMA IN-SITU VERSUS OTHER.  THE\u000a\u000aCALCIFICATIONS ARE IN THE X-RAYED SPECIMEN.\u000a\u000a\u000a\u000aSPECIMENS SUBMITTED:\u000a\u000aA: BREAST CORE BIOPSY, LEFT\u000a\u000a\u000a\u000a
p192
ag148
aa(lp193
VFINAL DIAGNOSIS\u000a\u000aCERTIFIES THAT HE/SHE HAS PERSONALLY REVIEWED THIS CASE AND CONFIRMED OR\u000a\u000aCORRECTED THE DIAGNOSIS.\u000a\u000a\u000a\u000a\u000a\u000aCLINICAL HISTORY\u000a\u000a42 YEAR OLD FEMALE WITH INDETERMINATE LEFT BREAST CALCIFICATIONS.  ?FCC VERSUS\u000a\u000aOTHER.\u000a\u000a\u000a\u000aSPECIMENS SUBMITTED:\u000a\u000aA: BREAST CORE BIOPSY, LEFT\u000a\u000a\u000a\u000a
p194
ag148
aa(lp195
VFINAL DIAGNOSIS\u000a\u000aCERTIFIES THAT HE/SHE HAS PERSONALLY REVIEWED THIS CASE AND CONFIRMED OR\u000a\u000aCORRECTED THE DIAGNOSIS.\u000a\u000a\u000a\u000a\u000a\u000aCLINICAL HISTORY\u000a\u000a42 YEAR OLD FEMALE WITH RIGHT BREAST CALCIFICATIONS, ? FIBROCYSTIC CHANGES\u000a\u000aVERSUS SA VERSUS DUCTAL CARCINOMA IN SITU.  TARGETED CALCIFICATIONS ARE IN THE\u000a\u000aSPECIMEN.\u000a\u000a\u000a\u000aSPECIMENS SUBMITTED:\u000a\u000aA: BREAST CORE BIOPSY, RIGHT\u000a\u000a\u000a\u000a
p196
ag148
aa(lp197
VFINAL DIAGNOSIS\u000a\u000aCERTIFIES THAT HE/SHE HAS PERSONALLY REVIEWED THIS CASE AND CONFIRMED OR\u000a\u000aCORRECTED THE DIAGNOSIS.\u000a\u000a\u000a\u000a\u000a\u000aCLINICAL HISTORY\u000a\u000a42 YEAR OLD WOMAN WITH SUSPICIOUS CALCIFICATIONS IN THE UPPER OUTER BREAST,\u000a\u000aPOSTERIOR DEPTH.  ? DCIS VS. FCC.  TARGETED CALCIFICATIONS ARE IN THE X-RAYED\u000a\u000aSPECIMEN.\u000a\u000a\u000a\u000aSPECIMENS SUBMITTED:\u000a\u000aA: BREAST CORE BIOPSY, LEFT\u000a\u000a\u000a\u000a
p198
ag148
aa(lp199
VFINAL DIAGNOSIS\u000a\u000aCERTIFIES THAT HE/SHE HAS PERSONALLY REVIEWED THIS CASE AND CONFIRMED OR\u000a\u000aCORRECTED THE DIAGNOSIS.\u000a\u000a\u000a\u000a\u000a\u000aCLINICAL HISTORY\u000a\u000a42 YEAR OLD WOMAN WITH SUSPICIOUS CALCIFICATIONS IN THE UPPER OUTER BREAST,\u000a\u000aPOSTERIOR DEPTH.  ? DCIS VS. FCC.  TARGETED CALCIFICATIONS ARE IN THE X-RAYED\u000a\u000aSPECIMEN.\u000a\u000a\u000a\u000aSPECIMENS SUBMITTED:\u000a\u000aA: BREAST CORE BIOPSY, LEFT\u000a\u000a\u000a\u000a
p200
ag148
aa(lp201
VFINAL DIAGNOSIS\u000a\u000aCERTIFIES THAT HE/SHE HAS PERSONALLY REVIEWED THIS CASE AND CONFIRMED OR\u000a\u000aCORRECTED THE DIAGNOSIS.\u000a\u000a\u000a\u000a\u000a\u000aCLINICAL HISTORY\u000a\u000a42 YO F WITH CIRCUMSCRIBED HYPERVASCULAR RIGHT BREAST MASS FOR ULTRASOUND GUIDED\u000a\u000aBIOPSY.\u000a\u000a\u000a\u000aSPECIMENS SUBMITTED:\u000a\u000aA: BREAST CORE BIOPSY, RIGHT MASS\u000a\u000a\u000a\u000a
p202
ag148
aa(lp203
VFINAL DIAGNOSIS\u000a\u000aCERTIFIES THAT HE/SHE HAS PERSONALLY REVIEWED THIS CASE AND CONFIRMED OR\u000a\u000aCORRECTED THE DIAGNOSIS.\u000a\u000a\u000a\u000a\u000a\u000aCLINICAL HISTORY\u000a\u000a42 YO F WITH CIRCUMSCRIBED HYPERVASCULAR RIGHT BREAST MASS FOR ULTRASOUND GUIDED\u000a\u000aBIOPSY.\u000a\u000a\u000a\u000aSPECIMENS SUBMITTED:\u000a\u000aA: BREAST CORE BIOPSY, RIGHT MASS\u000a\u000a\u000a\u000a
p204
ag148
aa(lp205
VFINAL DIAGNOSIS\u000a\u000aCERTIFIES THAT HE/SHE HAS PERSONALLY REVIEWED THIS CASE AND CONFIRMED OR\u000a\u000aCORRECTED THE DIAGNOSIS.\u000a\u000a\u000a\u000a\u000a\u000aCLINICAL HISTORY\u000a\u000a43 YEAR OLD FEMALE WITH AMORPHOUS CALCS IN THE RIGHT BREAST AT 6:00/LOWER INNER\u000a\u000aQUADRANT.  TARGETED CALCIFICATIONS ARE IN SPECIMEN.  DIFF: FIBROCYSTIC CHANGE,\u000a\u000aSCLEROSING ADENOSIS.\u000a\u000a\u000a\u000aSPECIMENS SUBMITTED:\u000a\u000aA: BREAST CORE BIOPSY, RIGHT CALCIFICATIONS AT 6:00\u000a\u000a\u000a\u000a
p206
ag148
aa(lp207
VFINAL DIAGNOSIS\u000a\u000aCERTIFIES THAT HE/SHE HAS PERSONALLY REVIEWED THIS CASE AND CONFIRMED OR\u000a\u000aCORRECTED THE DIAGNOSIS.\u000a\u000a\u000a\u000a\u000a\u000aCLINICAL HISTORY\u000a\u000a43 YEAR OLD FEMALE WITH AMORPHOUS CALCS IN THE RIGHT BREAST AT 6:00/LOWER INNER\u000a\u000aQUADRANT.  TARGETED CALCIFICATIONS ARE IN SPECIMEN.  DIFF: FIBROCYSTIC CHANGE,\u000a\u000aSCLEROSING ADENOSIS.\u000a\u000a\u000a\u000aSPECIMENS SUBMITTED:\u000a\u000aA: BREAST CORE BIOPSY, RIGHT CALCIFICATIONS AT 6:00\u000a\u000a\u000a\u000a
p208
ag148
aa(lp209
VFINAL DIAGNOSIS\u000a\u000aCERTIFIES THAT HE/SHE HAS PERSONALLY REVIEWED THIS CASE AND CONFIRMED OR\u000a\u000aCORRECTED THE DIAGNOSIS.\u000a\u000a\u000a\u000a\u000a\u000aCLINICAL HISTORY\u000a\u000a43 YEAR OLD FEMALE WITH HYPOECHOIC MASS IN THE RIGHT BREAST, ? INVASIVE DUCTAL\u000a\u000aCARCINOMA VERSUS PAPILLOMA VERSUS FIBROADENOMA VERSUS COMPLICATED CYST.\u000a\u000a\u000a\u000aSPECIMENS SUBMITTED:\u000a\u000aA: BREAST CORE BIOPSY, RIGHT\u000a\u000a\u000a\u000a
p210
ag148
aa(lp211
VFINAL DIAGNOSIS\u000a\u000aCERTIFIES THAT HE/SHE HAS PERSONALLY REVIEWED THIS CASE AND CONFIRMED OR\u000a\u000aCORRECTED THE DIAGNOSIS.\u000a\u000a\u000a\u000a\u000a\u000aCLINICAL HISTORY\u000a\u000a43 YEAR OLD FEMALE WITH LEFT BREAST CALCIFICATIONS FOR STEREOTACTIC CORE BIOPSY.\u000a\u000a\u000a\u000a\u000a\u000aSPECIMENS SUBMITTED:\u000a\u000aA: BREAST, LEFT, CORE BIOPSY\u000a\u000a\u000a\u000a
p212
ag148
aa(lp213
VFINAL DIAGNOSIS\u000a\u000aCERTIFIES THAT HE/SHE HAS PERSONALLY REVIEWED THIS CASE AND CONFIRMED OR\u000a\u000aCORRECTED THE DIAGNOSIS.\u000a\u000a\u000a\u000a\u000a\u000aCLINICAL HISTORY\u000a\u000a43 YEAR OLD FEMALE WITH RIGHT BREAST HYPOECHOIC MASS (AROUND 12 O'CLOCK) THAT IS\u000a\u000a>5.0 CM IN MAXIMUM DIMENSION AND HAS INCREASED IN SIZE MARKEDLY OVER THE LAST\u000a\u000a2-3 YEARS, PER PATIENT.\u000a\u000a\u000a\u000aSPECIMENS SUBMITTED:\u000a\u000aA: BREAST CORE BIOPSY, RIGHT\u000a\u000a\u000a\u000a
p214
ag148
aa(lp215
VFINAL DIAGNOSIS\u000a\u000aCERTIFIES THAT HE/SHE HAS PERSONALLY REVIEWED THIS CASE AND CONFIRMED OR\u000a\u000aCORRECTED THE DIAGNOSIS.\u000a\u000a\u000a\u000a\u000a\u000aCLINICAL HISTORY\u000a\u000a43 YEAR OLD FEMALE WITH RIGHT BREAST INDETERMINATE CALCIFICATIONS.  CONSIDER\u000a\u000aDUCTAL CARCINOMA IN-SITU VERSUS OTHER.  CALCIFICATIONS IN BLUE CASSETTE.\u000a\u000a\u000a\u000aSPECIMENS SUBMITTED:\u000a\u000aA: BREAST CORE BIOPSY, RIGHT\u000a\u000a\u000a\u000a
p216
ag148
aa(lp217
VFINAL DIAGNOSIS\u000a\u000aCERTIFIES THAT HE/SHE HAS PERSONALLY REVIEWED THIS CASE AND CONFIRMED OR\u000a\u000aCORRECTED THE DIAGNOSIS.\u000a\u000a\u000a\u000a\u000a\u000aCLINICAL HISTORY\u000a\u000a44 YEAR OLD FEMALE WITH A HISTORY OF ADH ON STEREOTACTIC CORE BIOPSY IN\u000a\u000a2009-2010.  STATUS-POST SURGICAL EXCISION.  HAS CALCIFICATION ADJACENT TO\u000a\u000aSURGICAL SITE (TARGETED CALCS IN SPECIMEN).  FAT NECROSIS VERSUS DCIS.\u000a\u000a\u000a\u000aSPECIMENS SUBMITTED:\u000a\u000aA: BREAST CORE BIOPSY, LEFT\u000a\u000a\u000a\u000a
p218
ag148
aa(lp219
VFINAL DIAGNOSIS\u000a\u000aCERTIFIES THAT HE/SHE HAS PERSONALLY REVIEWED THIS CASE AND CONFIRMED OR\u000a\u000aCORRECTED THE DIAGNOSIS.\u000a\u000a\u000a\u000a\u000a\u000aCLINICAL HISTORY\u000a\u000a44 YEAR OLD FEMALE WITH INDETERMINANT CALCIFICATIONS IN THE LEFT BREAST. ? DCIS\u000a\u000aVS FCC. TARGETED X-RAYED CALCIFICATIONS ARE IN THE SPECIMEN AND CASSETTE.\u000a\u000a\u000a\u000aSPECIMENS SUBMITTED:\u000a\u000aA: BREAST CORE BIOPSY, LEFT\u000a\u000a\u000a\u000a
p220
ag148
aa(lp221
VFINAL DIAGNOSIS\u000a\u000aCERTIFIES THAT HE/SHE HAS PERSONALLY REVIEWED THIS CASE AND CONFIRMED OR\u000a\u000aCORRECTED THE DIAGNOSIS.\u000a\u000a\u000a\u000a\u000a\u000aCLINICAL HISTORY\u000a\u000a44 YEAR OLD FEMALE WITH INDETERMINANT CALCIFICATIONS IN THE RIGHT BREAST.\u000a\u000aX-RAYED CALCIFICATIONS ARE IN THE CASSETTE.\u000a\u000a\u000a\u000aSPECIMENS SUBMITTED:\u000a\u000aA: BREAST CORE BIOPSY, RIGHT\u000a\u000a\u000a\u000a
p222
ag148
aa(lp223
VFINAL DIAGNOSIS\u000a\u000aCERTIFIES THAT HE/SHE HAS PERSONALLY REVIEWED THIS CASE AND CONFIRMED OR\u000a\u000aCORRECTED THE DIAGNOSIS.\u000a\u000a\u000a\u000a\u000a\u000aCLINICAL HISTORY\u000a\u000a44 YEAR OLD FEMALE WITH INDETERMINANT CALCIFICATIONS IN THE RIGHT BREAST.\u000a\u000aX-RAYED CALCIFICATIONS ARE IN THE CASSETTE.\u000a\u000a\u000a\u000aSPECIMENS SUBMITTED:\u000a\u000aA: BREAST CORE BIOPSY, RIGHT\u000a\u000a\u000a\u000a
p224
ag148
aa(lp225
VFINAL DIAGNOSIS\u000a\u000aCERTIFIES THAT HE/SHE HAS PERSONALLY REVIEWED THIS CASE AND CONFIRMED OR\u000a\u000aCORRECTED THE DIAGNOSIS.\u000a\u000a\u000a\u000a\u000a\u000aCLINICAL HISTORY\u000a\u000a44 YEAR OLD FEMALE WITH RIGHT BREAST CALCIFICATIONS. ? DCIS VS. FCC. THE\u000a\u000aTARGETED CALCIFICATIONS ARE IN THE X-RAYED SPECIMEN.\u000a\u000a\u000a\u000aSPECIMENS SUBMITTED:\u000a\u000aA: BREAST CORE BIOPSY, RIGHT\u000a\u000a\u000a\u000a
p226
ag148
aa(lp227
VFINAL DIAGNOSIS\u000a\u000aCERTIFIES THAT HE/SHE HAS PERSONALLY REVIEWED THIS CASE AND CONFIRMED OR\u000a\u000aCORRECTED THE DIAGNOSIS.\u000a\u000a\u000a\u000a\u000a\u000aCLINICAL HISTORY\u000a\u000a44 YEAR OLD FEMALE WITH RIGHT BREAST HYPOECHOIC LESION. ? FBA VS IDC VS OTHER.\u000a\u000a\u000a\u000aSPECIMENS SUBMITTED:\u000a\u000aA: BREAST CORE BIOPSY, RIGHT\u000a\u000a\u000a\u000a
p228
ag148
aa(lp229
VFINAL DIAGNOSIS\u000a\u000aCERTIFIES THAT HE/SHE HAS PERSONALLY REVIEWED THIS CASE AND CONFIRMED OR\u000a\u000aCORRECTED THE DIAGNOSIS.\u000a\u000a\u000a\u000a\u000a\u000aCLINICAL HISTORY\u000a\u000a44 YEAR OLD FEMALE WITH SUSPICIOUS LEFT BREAST CALCIFICATIONS POSTERIOR LOWER\u000a\u000aINNER LEFT BREAST. HISTORY OF LEFT DCIS 2012.  SURGICAL EXCISION WITHOUT\u000a\u000aRADIATION. ? DCIS.\u000a\u000a\u000a\u000aSPECIMENS SUBMITTED:\u000a\u000aA: BREAST CORE BIOPSY, LEFT\u000a\u000a\u000a\u000a
p230
ag148
aa(lp231
VFINAL DIAGNOSIS\u000a\u000aCERTIFIES THAT HE/SHE HAS PERSONALLY REVIEWED THIS CASE AND CONFIRMED OR\u000a\u000aCORRECTED THE DIAGNOSIS.\u000a\u000a\u000a\u000a\u000a\u000aCLINICAL HISTORY\u000a\u000a44 YEAR OLD FEMALE WITH SUSPICIOUS LEFT BREAST CALCIFICATIONS POSTERIOR LOWER\u000a\u000aINNER LEFT BREAST. HISTORY OF LEFT DCIS 2012.  SURGICAL EXCISION WITHOUT\u000a\u000aRADIATION. ? DCIS.\u000a\u000a\u000a\u000aSPECIMENS SUBMITTED:\u000a\u000aA: BREAST CORE BIOPSY, LEFT\u000a\u000a\u000a\u000a
p232
ag148
aa(lp233
VFINAL DIAGNOSIS\u000a\u000aCERTIFIES THAT HE/SHE HAS PERSONALLY REVIEWED THIS CASE AND CONFIRMED OR\u000a\u000aCORRECTED THE DIAGNOSIS.\u000a\u000a\u000a\u000a\u000a\u000aCLINICAL HISTORY\u000a\u000a44 YEAR OLD WITH RIGHT BREAST CALCIFICATIONS.  STATUS POST STEREOTACTIC BIOPSY.\u000a\u000a? FCC VERSUS DCIS.  THE TARGETED CALCIFICATIONS ARE PLACED IN THE CASSETTE.\u000a\u000a\u000a\u000aSPECIMENS SUBMITTED:\u000a\u000aA: BREAST CORE BIOPSY, RIGHT\u000a\u000a\u000a\u000a
p234
ag148
aa(lp235
VFINAL DIAGNOSIS\u000a\u000aCERTIFIES THAT HE/SHE HAS PERSONALLY REVIEWED THIS CASE AND CONFIRMED OR\u000a\u000aCORRECTED THE DIAGNOSIS.\u000a\u000a\u000a\u000a\u000a\u000aCLINICAL HISTORY\u000a\u000a44 YEAR-OLD FEMALE WITH INDETERMINATE CALCS IN LOWER CENTRAL LEFT BREAST, ? FCC,\u000a\u000aSCLEROSING ADENOSIS, DCIS, TARGETED CALCS CONFIRMED WITH RADIOGRAPH AND PLACED\u000a\u000aIN CASSETTE.\u000a\u000a\u000a\u000aSPECIMENS SUBMITTED:\u000a\u000aA: BREAST CORE BIOPSY, LEFT\u000a\u000a\u000a\u000a
p236
ag148
aa(lp237
VFINAL DIAGNOSIS\u000a\u000aCERTIFIES THAT HE/SHE HAS PERSONALLY REVIEWED THIS CASE AND CONFIRMED OR\u000a\u000aCORRECTED THE DIAGNOSIS.\u000a\u000a\u000a\u000a\u000a\u000aCLINICAL HISTORY\u000a\u000a44 YO FEMALE WITH LEFT BREAST LOWER INNER CALCIFICATIONS, PREVIOUS OUTSIDE CORE\u000a\u000aBIOPSY REVEALED NORMAL BREAST TISSUE AND NO CALCIFICATIONS.  REPEAT BIOPSY OF\u000a\u000aCALCIFICATIONS TODAY.  ? FIBROCYSTIC CHANGES VS. DCIS.  * TARGETED\u000a\u000aCALCIFICATIONS ARE PRESENT IN THE SPECIMEN TODAY.\u000a\u000a\u000a\u000aSPECIMENS SUBMITTED:\u000a\u000aA: BREAST CORE BIOPSY, LEFT\u000a\u000a\u000a\u000a
p238
ag148
aa(lp239
VFINAL DIAGNOSIS\u000a\u000aCERTIFIES THAT HE/SHE HAS PERSONALLY REVIEWED THIS CASE AND CONFIRMED OR\u000a\u000aCORRECTED THE DIAGNOSIS.\u000a\u000a\u000a\u000a\u000a\u000aCLINICAL HISTORY\u000a\u000a45 YEAR OLD FEMALE PRESENTS FOR STEREOTACTIC GUIDED CORE BIOPSY OF\u000a\u000aCALCIFICATIONS IN THE LOWER INNER QUADRANT OF THE LEFT BREAST. ? FIBROCYSTIC\u000a\u000aCHANGE, CALCIUM OXALATE; CALCIFICATIONS ARE IN THE TISSUE SAMPLE.\u000a\u000a\u000a\u000aSPECIMENS SUBMITTED:\u000a\u000aA: BREAST CORE BIOPSY, LEFT\u000a\u000a\u000a\u000a
p240
ag148
aa(lp241
VFINAL DIAGNOSIS\u000a\u000aCERTIFIES THAT HE/SHE HAS PERSONALLY REVIEWED THIS CASE AND CONFIRMED OR\u000a\u000aCORRECTED THE DIAGNOSIS.\u000a\u000a\u000a\u000a\u000a\u000aCLINICAL HISTORY\u000a\u000a45 YEAR OLD FEMALE PRESENTS FOR STEREOTACTIC GUIDED CORE BIOPSY OF\u000a\u000aCALCIFICATIONS IN THE LOWER INNER QUADRANT OF THE LEFT BREAST. ? FIBROCYSTIC\u000a\u000aCHANGE, CALCIUM OXALATE; CALCIFICATIONS ARE IN THE TISSUE SAMPLE.\u000a\u000a\u000a\u000aSPECIMENS SUBMITTED:\u000a\u000aA: BREAST CORE BIOPSY, LEFT\u000a\u000a\u000a\u000a
p242
ag148
aa(lp243
VFINAL DIAGNOSIS\u000a\u000aCERTIFIES THAT HE/SHE HAS PERSONALLY REVIEWED THIS CASE AND CONFIRMED OR\u000a\u000aCORRECTED THE DIAGNOSIS.\u000a\u000a\u000a\u000a\u000a\u000aCLINICAL HISTORY\u000a\u000a45 YEAR OLD FEMALE WITH CLUSTER OF CALCIFICATIONS IN THE RIGHT BREAST.  THE\u000a\u000aCALCIFICATIONS ARE IN THE CASSETTE.\u000a\u000a\u000a\u000aSPECIMENS SUBMITTED:\u000a\u000aA: BREAST CORE BIOPSY, RIGHT\u000a\u000a\u000a\u000a
p244
ag148
aa(lp245
VFINAL DIAGNOSIS\u000a\u000aCERTIFIES THAT HE/SHE HAS PERSONALLY REVIEWED THIS CASE AND CONFIRMED OR\u000a\u000aCORRECTED THE DIAGNOSIS.\u000a\u000a\u000a\u000a\u000a\u000aCLINICAL HISTORY\u000a\u000a45 YEAR OLD FEMALE WITH FAINT INDETERMINATE RIGHT BREAST CALCIFICATIONS.  ?\u000a\u000aBENIGN, ? OTHER.\u000a\u000a\u000a\u000aSPECIMENS SUBMITTED:\u000a\u000aA: BREAST CORE BIOPSY, RIGHT\u000a\u000a\u000a\u000a
p246
ag148
aa(lp247
VFINAL DIAGNOSIS\u000a\u000aCERTIFIES THAT HE/SHE HAS PERSONALLY REVIEWED THIS CASE AND CONFIRMED OR\u000a\u000aCORRECTED THE DIAGNOSIS.\u000a\u000a\u000a\u000a\u000a\u000aCLINICAL HISTORY\u000a\u000a45 YEAR OLD FEMALE WITH FEA IN THE RIGHT BREAST.  HAS A 13 MM OVAL, LOBULATED\u000a\u000aMASS IN THE LEFT BREAST.  FIBROADENOMA VERSUS CANCER.\u000a\u000a\u000a\u000aSPECIMENS SUBMITTED:\u000a\u000aA: BREAST CORE BIOPSY, LEFT\u000a\u000a\u000a\u000a
p248
ag148
aa(lp249
VFINAL DIAGNOSIS\u000a\u000aCERTIFIES THAT HE/SHE HAS PERSONALLY REVIEWED THIS CASE AND CONFIRMED OR\u000a\u000aCORRECTED THE DIAGNOSIS.\u000a\u000a\u000a\u000a\u000a\u000aCLINICAL HISTORY\u000a\u000a45 YEAR OLD FEMALE WITH INDETERMINATE CALCIFICATIONS IN THE LEFT BREAST.  ?\u000a\u000aFIBROADENOMA VERSUS DCIS.  THE CALCIFICATIONS ARE IN THE SPECIMEN.\u000a\u000a\u000a\u000aSPECIMENS SUBMITTED:\u000a\u000aA: BREAST CORE BIOPSY, LEFT\u000a\u000a\u000a\u000a
p250
ag148
aa(lp251
VFINAL DIAGNOSIS\u000a\u000aCERTIFIES THAT HE/SHE HAS PERSONALLY REVIEWED THIS CASE AND CONFIRMED OR\u000a\u000aCORRECTED THE DIAGNOSIS.\u000a\u000a\u000a\u000a\u000a\u000aCLINICAL HISTORY\u000a\u000a45 YEAR OLD FEMALE WITH LEFT BREAST CALCIFICATIONS IN THE ANTERIOR UPPER OUTER\u000a\u000aLEFT BREAST. ? SCLEROSING ADENOSIS, FIBROCYSTIC CHANGES VS DCIS.  THE TARGETED\u000a\u000aCALCIFICATIONS ARE IN THE X-RAYED SPECIMEN.\u000a\u000a\u000a\u000aSPECIMENS SUBMITTED:\u000a\u000aA: BREAST CORE BIOPSY, LEFT\u000a\u000a\u000a\u000a
p252
ag148
aa(lp253
VFINAL DIAGNOSIS\u000a\u000aCERTIFIES THAT HE/SHE HAS PERSONALLY REVIEWED THIS CASE AND CONFIRMED OR\u000a\u000aCORRECTED THE DIAGNOSIS.\u000a\u000a\u000a\u000a\u000a\u000aCLINICAL HISTORY\u000a\u000a45 YEAR OLD FEMALE WITH LEFT BREAST MASS FOR ULTRASOUND-GUIDED CORE BIOPSY.\u000a\u000a\u000a\u000aSPECIMENS SUBMITTED:\u000a\u000aA: LEFT BREAST MASS\u000a\u000a\u000a\u000a
p254
ag148
aa(lp255
VFINAL DIAGNOSIS\u000a\u000aCERTIFIES THAT HE/SHE HAS PERSONALLY REVIEWED THIS CASE AND CONFIRMED OR\u000a\u000aCORRECTED THE DIAGNOSIS.\u000a\u000a\u000a\u000a\u000a\u000aCLINICAL HISTORY\u000a\u000a45 YEAR OLD FEMALE WITH LEFT UPPER OUTER CALCIFICATIONS, ? DUCTAL CARCINOMA\u000a\u000aIN-SITU VERSUS FIBROCYSTIC CHANGES VERSUS OTHER.  CALCIFICATIONS ARE IN\u000a\u000aSPECIMEN.\u000a\u000a\u000a\u000aSPECIMENS SUBMITTED:\u000a\u000aA: BREAST CORE BIOPSY, LEFT\u000a\u000a\u000a\u000a
p256
ag148
aa(lp257
VFINAL DIAGNOSIS\u000a\u000aCERTIFIES THAT HE/SHE HAS PERSONALLY REVIEWED THIS CASE AND CONFIRMED OR\u000a\u000aCORRECTED THE DIAGNOSIS.\u000a\u000a\u000a\u000a\u000a\u000aCLINICAL HISTORY\u000a\u000a46 FEMALE WITH NEW MASS ON RIGHT BREAST MAMMOGRAM, MIXED ECHOGENIC 1.6 CM MASS\u000a\u000aAT 6 O'CLOCK WITH INTERNAL VASCULARITY AND POSSIBLY WITHIN DILATED DUCT.\u000a\u000aCONSIDER PAPILLOMA VERSUS OTHER.\u000a\u000a\u000a\u000aSPECIMENS SUBMITTED:\u000a\u000aA: BREAST CORE BIOPSY, RIGHT\u000a\u000a\u000a\u000a
p258
ag148
aa(lp259
VFINAL DIAGNOSIS\u000a\u000aCERTIFIES THAT HE/SHE HAS PERSONALLY REVIEWED THIS CASE AND CONFIRMED OR\u000a\u000aCORRECTED THE DIAGNOSIS.\u000a\u000a\u000a\u000a\u000a\u000aCLINICAL HISTORY\u000a\u000a46 YEAR OLD FEMALE WITH INDETERMINATE CALCIFICATION IN THE UPPER OUTER QUADRANT\u000a\u000aOF THE RIGHT BREAST, ? OIL CYST/FAT NECROSIS VS. OTHER.  BIOPSIED CALCIFICATIONS\u000a\u000aARE IN THE CASSETTE.\u000a\u000a\u000a\u000aSPECIMENS SUBMITTED:\u000a\u000aA: BREAST CORE BIOPSY, RIGHT\u000a\u000a\u000a\u000a
p260
ag148
aa(lp261
VFINAL DIAGNOSIS\u000a\u000aCERTIFIES THAT HE/SHE HAS PERSONALLY REVIEWED THIS CASE AND CONFIRMED OR\u000a\u000aCORRECTED THE DIAGNOSIS.\u000a\u000a\u000a\u000a\u000a\u000aCLINICAL HISTORY\u000a\u000a46 YO F WITH RIGHT BREAST CALEFACTION, ? FCC VS. DCIS. TARGETED CALCIFICATION\u000a\u000aARE IN THE SPECIMEN.\u000a\u000a\u000a\u000aSPECIMENS SUBMITTED:\u000a\u000aA: BREAST CORE BIOPSY, RIGHT\u000a\u000a\u000a\u000a
p262
ag148
aa(lp263
VFINAL DIAGNOSIS\u000a\u000aCERTIFIES THAT HE/SHE HAS PERSONALLY REVIEWED THIS CASE AND CONFIRMED OR\u000a\u000aCORRECTED THE DIAGNOSIS.\u000a\u000a\u000a\u000a\u000a\u000aCLINICAL HISTORY\u000a\u000a46 YO FEMALE WITH RIGHT BREAST INTRADUCTAL MASS AT 9:00, 1 CM FROM NIPPLE. ?\u000a\u000aPAPILLOMA, PAPILLOCARCINOMA.\u000a\u000a\u000a\u000aSPECIMENS SUBMITTED:\u000a\u000aA: BREAST CORE BIOPSY, RIGHT 9:00\u000a\u000a\u000a\u000a
p264
ag148
aa(lp265
VFINAL DIAGNOSIS\u000a\u000aCERTIFIES THAT HE/SHE HAS PERSONALLY REVIEWED THIS CASE AND CONFIRMED OR\u000a\u000aCORRECTED THE DIAGNOSIS.\u000a\u000a\u000a\u000a\u000a\u000aCLINICAL HISTORY\u000a\u000a46-YEAR-OLD FEMALE WITH ARCHITECTURAL DISTORTION IN THE LEFT BREAST WITH 10 X 8\u000a\u000aX 4-MM HYPOECHOIC MASS ON U/S.  RADIAL SCAR VS. CANCER.\u000a\u000a\u000a\u000aSPECIMENS SUBMITTED:\u000a\u000aA: BREAST CORE BIOPSY, LEFT 12:00 3CM FROM NIPPLE\u000a\u000a\u000a\u000a
p266
ag148
aa(lp267
VFINAL DIAGNOSIS\u000a\u000aCERTIFIES THAT HE/SHE HAS PERSONALLY REVIEWED THIS CASE AND CONFIRMED OR\u000a\u000aCORRECTED THE DIAGNOSIS.\u000a\u000a\u000a\u000a\u000a\u000aCLINICAL HISTORY\u000a\u000a47 Y.O. F W/ CALCIFICATIONS IN THE LEFT BREAST. PT HAS A HX OF ADH AND LCIS.?\u000a\u000aADH VS LCIS VS DCIS. X-RAYED CALCIFICATIONS ARE IN THE CASSETTE.\u000a\u000a\u000a\u000aSPECIMENS SUBMITTED:\u000a\u000aA: BREAST CORE BIOPSY, LEFT\u000a\u000a\u000a\u000a
p268
ag148
aa(lp269
VFINAL DIAGNOSIS\u000a\u000aCERTIFIES THAT HE/SHE HAS PERSONALLY REVIEWED THIS CASE AND CONFIRMED OR\u000a\u000aCORRECTED THE DIAGNOSIS.\u000a\u000a\u000a\u000a\u000a\u000aCLINICAL HISTORY\u000a\u000a47 YEAR OLD FEMALE WITH CALCIFICATIONS IN LEFT UPPER OUTER BREAST, ? DCIS.\u000a\u000aTARGETED CALCIFICATIONS ARE IN THE SPECIMEN.\u000a\u000a\u000a\u000aSPECIMENS SUBMITTED:\u000a\u000aA: BREAST CORE BIOPSY, LEFT\u000a\u000a\u000a\u000a
p270
ag148
aa(lp271
VFINAL DIAGNOSIS\u000a\u000aCERTIFIES THAT HE/SHE HAS PERSONALLY REVIEWED THIS CASE AND CONFIRMED OR\u000a\u000aCORRECTED THE DIAGNOSIS.\u000a\u000a\u000a\u000a\u000a\u000aCLINICAL HISTORY\u000a\u000a47 YEAR OLD FEMALE WITH SPICULATED MASSES IN THE RIGHT BREAST.  ? INVASIVE\u000a\u000aDUCTAL CARCINOMA VERSUS OTHER FOR BOTH MASSES.  A.  ONE MASS AT 6 O'CLOCK.  B.\u000a\u000aONE MASS AT 6:30 O'CLOCK.\u000a\u000a\u000a\u000aSPECIMENS SUBMITTED:\u000a\u000aA: BREAST CORE BIOPSY, RIGHT 6:00 MASS\u000a\u000aB: BREAST CORE BIOPSY, RIGHT 6:30 MASS\u000a\u000a\u000a\u000a
p272
ag148
aa(lp273
VFINAL DIAGNOSIS\u000a\u000aCERTIFIES THAT HE/SHE HAS PERSONALLY REVIEWED THIS CASE AND CONFIRMED OR\u000a\u000aCORRECTED THE DIAGNOSIS.\u000a\u000a\u000a\u000a\u000a\u000aCLINICAL HISTORY\u000a\u000a47 YEAR OLD WITH LEFT BREAST MASS AT 9:00, 2 CM FROM NIPPLE.  H/O RIGHT BREAST\u000a\u000aADH + FEA IN 2013. DIFF: FA, PHYLLODES.\u000a\u000a\u000a\u000aSPECIMENS SUBMITTED:\u000a\u000aA: BREAST CORE BIOPSY, LEFT 9:00\u000a\u000a\u000a\u000a
p274
ag148
aa(lp275
VFINAL DIAGNOSIS\u000a\u000aCERTIFIES THAT HE/SHE HAS PERSONALLY REVIEWED THIS CASE AND CONFIRMED OR\u000a\u000aCORRECTED THE DIAGNOSIS.\u000a\u000a\u000a\u000a\u000a\u000aCLINICAL HISTORY\u000a\u000a48 YEAR OLD FEMALE WITH CALCIFICATIONS IN THE UPPER OUTER REGION OF THE LEFT\u000a\u000aBREAST, FOR STEREOTACTIC CORE BIOPSY.  CALCIFICATIONS ARE PRESENT IN RADIOGRAPH\u000a\u000aSPECIMEN.\u000a\u000a\u000a\u000aSPECIMENS SUBMITTED:\u000a\u000aA: BREAST CORE BIOPSY, LEFT\u000a\u000a\u000a\u000a
p276
ag148
aa(lp277
VFINAL DIAGNOSIS\u000a\u000aCERTIFIES THAT HE/SHE HAS PERSONALLY REVIEWED THIS CASE AND CONFIRMED OR\u000a\u000aCORRECTED THE DIAGNOSIS.\u000a\u000a\u000a\u000a\u000a\u000aCLINICAL HISTORY\u000a\u000a48 YEAR OLD FEMALE WITH HISTORY OF RIGHT BREAST PAPILLOMA EXCISION, WITH NEW\u000a\u000aRIGHT BREAST CALCIFICATIONS.  ? FAT NECROSIS VERSUS DCIS.\u000a\u000a\u000a\u000aSPECIMENS SUBMITTED:\u000a\u000aA: BREAST CORE BIOPSY, RIGHT\u000a\u000a\u000a\u000a
p278
ag148
aa(lp279
VFINAL DIAGNOSIS\u000a\u000aCERTIFIES THAT HE/SHE HAS PERSONALLY REVIEWED THIS CASE AND CONFIRMED OR\u000a\u000aCORRECTED THE DIAGNOSIS.\u000a\u000a\u000a\u000a\u000a\u000aCLINICAL HISTORY\u000a\u000a48 YEAR OLD FEMALE WITH RIGHT BREAST CALCIFICATIONS FOR STEREOTACTIC CORE\u000a\u000aBIOPSY.  PATIENT HAS HISTORY OF LEFT BREAST AND ADH IN 2005.  ? DUCTAL CARCINOMA\u000a\u000aIN-SITU VERSUS FIBROCYSTIC CHANGES VERSUS SCLEROSING ADENOSIS.\u000a\u000a\u000a\u000aSPECIMENS SUBMITTED:\u000a\u000aA: BREAST CORE BIOPSY, RIGHT\u000a\u000a\u000a\u000a
p280
ag148
aa(lp281
VFINAL DIAGNOSIS\u000a\u000aCERTIFIES THAT HE/SHE HAS PERSONALLY REVIEWED THIS CASE AND CONFIRMED OR\u000a\u000aCORRECTED THE DIAGNOSIS.\u000a\u000a\u000a\u000a\u000a\u000aCLINICAL HISTORY\u000a\u000a48 YEAR OLD FEMALE WITH STRONG FAMILY HISTORY OF BREAST CANCER.  MATERNAL\u000a\u000aGRANDMOTHER AND MATERNAL UNCLE.  FOUND TO HAVE 1.7 X 1.2 X 1.1 CM LINEAR\u000a\u000aSTIPPLED NON-MASS-LIKE ENHANCEMENT IN THE LEFT BREAST.  PATIENT HAS PRIOR BENIGN\u000a\u000aLEFT BREAST BIOPSIES.  CONSIDER DUCTAL CARCINOMA IN SITU VERSUS OTHER.\u000a\u000a\u000a\u000aSPECIMENS SUBMITTED:\u000a\u000aA: BREAST CORE BIOPSY, LEFT\u000a\u000a\u000a\u000a
p282
ag148
aa(lp283
VFINAL DIAGNOSIS\u000a\u000aCERTIFIES THAT HE/SHE HAS PERSONALLY REVIEWED THIS CASE AND CONFIRMED OR\u000a\u000aCORRECTED THE DIAGNOSIS.\u000a\u000a\u000a\u000a\u000a\u000aCLINICAL HISTORY\u000a\u000a48 YEAR OLD FEMALE, STATUS POST STEREOTACTIC CORE BIOPSY OF CLUSTERED\u000a\u000aCALCIFICATIONS UOQ, RIGHT BREAST, ? FIBROCYSTIC CHANGES VS. DCIS.  TARGETED\u000a\u000aCALCIFICATIONS IN X-RAYED TISSUE SPECIMEN.\u000a\u000a\u000a\u000aSPECIMENS SUBMITTED:\u000a\u000aA: BREAST CORE BIOPSY, RIGHT\u000a\u000a\u000a\u000a
p284
ag148
aa(lp285
VFINAL DIAGNOSIS\u000a\u000aCERTIFIES THAT HE/SHE HAS PERSONALLY REVIEWED THIS CASE AND CONFIRMED OR\u000a\u000aCORRECTED THE DIAGNOSIS.\u000a\u000a\u000a\u000a\u000a\u000aCLINICAL HISTORY\u000a\u000a49 FEMALE WITH HISTORY OF LEFT BREAST TRIPLE NEGATIVE CANCER, NOW WITH A NEW\u000a\u000aRIGHT UPPER CENTRAL CALCIFICATION.  CONSIDER DUCTAL CARCINOMA IN SITU VERSUS\u000a\u000aOTHER.\u000a\u000a\u000a\u000aSPECIMENS SUBMITTED:\u000a\u000aA: BREAST CORE BIOPSY, RIGHT\u000a\u000a\u000a\u000a
p286
ag148
aa(lp287
VFINAL DIAGNOSIS\u000a\u000aCERTIFIES THAT HE/SHE HAS PERSONALLY REVIEWED THIS CASE AND CONFIRMED OR\u000a\u000aCORRECTED THE DIAGNOSIS.\u000a\u000a\u000a\u000a\u000a\u000aCLINICAL HISTORY\u000a\u000a49 YEAR OLD FEMALE WITH CALCIFICATIONS IN THE LEFT BREAST UPPER INNER QUADRANT.\u000a\u000aTHE CALCIFICATIONS ARE IN THE CASSETTE. DIFF: FCC, SCLEROSING ADENOSIS, DCIS.\u000a\u000a\u000a\u000aSPECIMENS SUBMITTED:\u000a\u000aA: BREAST CORE BIOPSY, LEFT\u000a\u000a\u000a\u000a
p288
ag148
aa(lp289
VFINAL DIAGNOSIS\u000a\u000aCERTIFIES THAT HE/SHE HAS PERSONALLY REVIEWED THIS CASE AND CONFIRMED OR\u000a\u000aCORRECTED THE DIAGNOSIS.\u000a\u000a\u000a\u000a\u000a\u000aCLINICAL HISTORY\u000a\u000a49 YEAR OLD FEMALE WITH CALCIFICATIONS IN THE LEFT BREAST UPPER INNER QUADRANT.\u000a\u000aTHE CALCIFICATIONS ARE IN THE CASSETTE. DIFF: FCC, SCLEROSING ADENOSIS, DCIS.\u000a\u000a\u000a\u000aSPECIMENS SUBMITTED:\u000a\u000aA: BREAST CORE BIOPSY, LEFT\u000a\u000a\u000a\u000a
p290
ag148
aa(lp291
VFINAL DIAGNOSIS\u000a\u000aCERTIFIES THAT HE/SHE HAS PERSONALLY REVIEWED THIS CASE AND CONFIRMED OR\u000a\u000aCORRECTED THE DIAGNOSIS.\u000a\u000a\u000a\u000a\u000a\u000aCLINICAL HISTORY\u000a\u000a49 YEAR OLD FEMALE WITH HISTORY OF FAINT RIGHT BREAST CALCIFICATIONS WHICH ARE\u000a\u000aINCREAED. PRIOR HISTORY OF RIGHT DCIS/LCIS TREATED WITH WIDE EXCISION 12/2007.\u000a\u000aPATIENT HAS RETROPECTORAL IMPLANTS. ? FCC, SCLEROSING ADENOSIS, DCIS, LCIS.\u000a\u000a\u000a\u000aSPECIMENS SUBMITTED:\u000a\u000aA: BREAST CORE BIOPSY, RIGHT\u000a\u000a\u000a\u000a
p292
ag148
aa(lp293
VFINAL DIAGNOSIS\u000a\u000aCERTIFIES THAT HE/SHE HAS PERSONALLY REVIEWED THIS CASE AND CONFIRMED OR\u000a\u000aCORRECTED THE DIAGNOSIS.\u000a\u000a\u000a\u000a\u000a\u000aCLINICAL HISTORY\u000a\u000a49 YEAR OLD FEMALE WITH HISTORY OF FAINT RIGHT BREAST CALCIFICATIONS WHICH ARE\u000a\u000aINCREAED. PRIOR HISTORY OF RIGHT DCIS/LCIS TREATED WITH WIDE EXCISION 12/2007.\u000a\u000aPATIENT HAS RETROPECTORAL IMPLANTS. ? FCC, SCLEROSING ADENOSIS, DCIS, LCIS.\u000a\u000a\u000a\u000aSPECIMENS SUBMITTED:\u000a\u000aA: BREAST CORE BIOPSY, RIGHT\u000a\u000a\u000a\u000a
p294
ag148
aa(lp295
VFINAL DIAGNOSIS\u000a\u000aCERTIFIES THAT HE/SHE HAS PERSONALLY REVIEWED THIS CASE AND CONFIRMED OR\u000a\u000aCORRECTED THE DIAGNOSIS.\u000a\u000a\u000a\u000a\u000a\u000aCLINICAL HISTORY\u000a\u000a49 YEAR OLD FEMALE WITH INCREASING LEFT BREAST ASYMMETRY AT 9 O'CLOCK, PASH\u000a\u000aVERSUS FIBROCYSTIC CHANGE VERSUS BREAST PARENCHYMA.\u000a\u000a\u000a\u000aSPECIMENS SUBMITTED:\u000a\u000aA: BREAST CORE BIOPSY, LEFT 9:00\u000a\u000a\u000a\u000a
p296
ag148
aa(lp297
VFINAL DIAGNOSIS\u000a\u000aCERTIFIES THAT HE/SHE HAS PERSONALLY REVIEWED THIS CASE AND CONFIRMED OR\u000a\u000aCORRECTED THE DIAGNOSIS.\u000a\u000a\u000a\u000a\u000a\u000aCLINICAL HISTORY\u000a\u000a49 YEAR OLD FEMALE WITH PAST HISTORY OF HAMARTOMA WITH ADH ON AN EXCISION OF A\u000a\u000aMASS IN DECEMBER 2012 AT MGH.  NOW WITH A CLUSTER OF CALCIFICATIONS IN THE RIGHT\u000a\u000aBREAST IN THE UPPER OUTER QUADRANT.  ? DCIS VS. FIBROCYSTIC CHANGE.  THE\u000a\u000aCALCIFICATIONS ARE IN THE X-RAYED SPECIMEN.\u000a\u000a\u000a\u000aSPECIMENS SUBMITTED:\u000a\u000aA: BREAST CORE BIOPSY, RIGHT\u000a\u000a\u000a\u000a
p298
ag148
aa(lp299
VFINAL DIAGNOSIS\u000a\u000aCERTIFIES THAT HE/SHE HAS PERSONALLY REVIEWED THIS CASE AND CONFIRMED OR\u000a\u000aCORRECTED THE DIAGNOSIS.\u000a\u000a\u000a\u000a\u000a\u000aCLINICAL HISTORY\u000a\u000a49 YEAR OLD FEMALE WITH PAST HISTORY OF HAMARTOMA WITH ADH ON AN EXCISION OF A\u000a\u000aMASS IN DECEMBER 2012 AT MGH.  NOW WITH A CLUSTER OF CALCIFICATIONS IN THE RIGHT\u000a\u000aBREAST IN THE UPPER OUTER QUADRANT.  ? DCIS VS. FIBROCYSTIC CHANGE.  THE\u000a\u000aCALCIFICATIONS ARE IN THE X-RAYED SPECIMEN.\u000a\u000a\u000a\u000aSPECIMENS SUBMITTED:\u000a\u000aA: BREAST CORE BIOPSY, RIGHT\u000a\u000a\u000a\u000a
p300
ag148
aa(lp301
VFINAL DIAGNOSIS\u000a\u000aCERTIFIES THAT HE/SHE HAS PERSONALLY REVIEWED THIS CASE AND CONFIRMED OR\u000a\u000aCORRECTED THE DIAGNOSIS.\u000a\u000a\u000a\u000a\u000a\u000aCLINICAL HISTORY\u000a\u000a49 YEAR OLD FEMALE WITH RIGHT BREAST CALCIFICATIONS, ? DUCTAL CARCINOMA IN SITU.\u000a\u000aTARGET CALCIFICATIONS ARE IN THE SPECIMEN.\u000a\u000a\u000a\u000aSPECIMENS SUBMITTED:\u000a\u000aA: BREAST CORE BIOPSY, RIGHT\u000a\u000a\u000a\u000a
p302
ag148
aa(lp303
VFINAL DIAGNOSIS\u000a\u000aCERTIFIES THAT HE/SHE HAS PERSONALLY REVIEWED THIS CASE AND CONFIRMED OR\u000a\u000aCORRECTED THE DIAGNOSIS.\u000a\u000a\u000a\u000a\u000a\u000aCLINICAL HISTORY\u000a\u000a49 YEAR OLD FEMALE WITH RIGHT BREAST PLEOMORPHIC CALCIFICATIONS FOR STEREOTACTIC\u000a\u000aCORE BIOPSY.  CALCIFICATIONS ARE IN THE RADIOGRAPHIC SPECIMEN.\u000a\u000a\u000a\u000aSPECIMENS SUBMITTED:\u000a\u000aA: BREAST CORE BIOPSY, RIGHT\u000a\u000a\u000a\u000a
p304
ag148
aa(lp305
VFINAL DIAGNOSIS\u000a\u000aCERTIFIES THAT HE/SHE HAS PERSONALLY REVIEWED THIS CASE AND CONFIRMED OR\u000a\u000aCORRECTED THE DIAGNOSIS.\u000a\u000a\u000a\u000a\u000a\u000aCLINICAL HISTORY\u000a\u000a49 YEAR OLD FEMALE WITH RIGHT BREAST PLEOMORPHIC CALCIFICATIONS FOR STEREOTACTIC\u000a\u000aCORE BIOPSY.  CALCIFICATIONS ARE IN THE RADIOGRAPHIC SPECIMEN.\u000a\u000a\u000a\u000aSPECIMENS SUBMITTED:\u000a\u000aA: BREAST CORE BIOPSY, RIGHT\u000a\u000a\u000a\u000a
p306
ag148
aa(lp307
VFINAL DIAGNOSIS\u000a\u000aCERTIFIES THAT HE/SHE HAS PERSONALLY REVIEWED THIS CASE AND CONFIRMED OR\u000a\u000aCORRECTED THE DIAGNOSIS.\u000a\u000a\u000a\u000a\u000a\u000aCLINICAL HISTORY\u000a\u000a49 YEAR OLD WITH MICROCALCIFICATIONS.  ? DUCTAL CARCINOMA IN SITU VERSUS OTHER.\u000a\u000aTHE CALCIFICATIONS ARE IN THE CASSETTE.\u000a\u000a\u000a\u000aSPECIMENS SUBMITTED:\u000a\u000aA: BREAST CORE BIOPSY, RIGHT UPPER CENTRAL CALCIFICATIONS\u000a\u000a\u000a\u000a
p308
ag148
aa(lp309
VFINAL DIAGNOSIS\u000a\u000aCERTIFIES THAT HE/SHE HAS PERSONALLY REVIEWED THIS CASE AND CONFIRMED OR\u000a\u000aCORRECTED THE DIAGNOSIS.\u000a\u000a\u000a\u000a\u000a\u000aCLINICAL HISTORY\u000a\u000a49 YEAR OLD WOMAN WITH PALPABLE LEFT BREAST MASS.  FOUND 30 X 15 X 25 MM\u000a\u000aHETEROGENOUSLY ECHOGENIC, IRREGULAR MASS IN LEFT BREAST, 3 O'CLOCK, 1 CM FROM\u000a\u000aTHE NIPPLE.  CONSIDER FIBROADENOMA, PHYLLODES, VS. OTHER.\u000a\u000a\u000a\u000aSPECIMENS SUBMITTED:\u000a\u000aA: BREAST CORE BIOPSY, LEFT\u000a\u000a\u000a\u000a
p310
ag148
aa(lp311
VFINAL DIAGNOSIS\u000a\u000aCERTIFIES THAT HE/SHE HAS PERSONALLY REVIEWED THIS CASE AND CONFIRMED OR\u000a\u000aCORRECTED THE DIAGNOSIS.\u000a\u000a\u000a\u000a\u000a\u000aCLINICAL HISTORY\u000a\u000a49 YEARS OLD FEMALE WITH HISTORY OF RIGHT BREAST LCIS IN 2008 AND 2010. NOW WITH\u000a\u000aRIGHT BREAST CALCIFICATIONS. ? DCIS VS LCIS. TARGETED CALCIFICATIONS ARE PRESENT\u000a\u000aIN TRAY.\u000a\u000a\u000a\u000aSPECIMENS SUBMITTED:\u000a\u000aA: BREAST CORE BIOPSY, RIGHT\u000a\u000a\u000a\u000a
p312
ag148
aa(lp313
VFINAL DIAGNOSIS\u000a\u000aCERTIFIES THAT HE/SHE HAS PERSONALLY REVIEWED THIS CASE AND CONFIRMED OR\u000a\u000aCORRECTED THE DIAGNOSIS.\u000a\u000a\u000a\u000a\u000a\u000aCLINICAL HISTORY\u000a\u000a50 YEAR OLD FEMALE PRESENTS FOR STEREOTACTIC CORE BIOPSY OF CALCIFICATIONS IN\u000a\u000aTHE LEFT BREAST.  BIOPSIED CALCIFICATIONS ARE PRESENT IN THE CASSETTE.  ?\u000a\u000aFIBROADENOMA VERSUS DUCTAL CARCINOMA IN-SITU.\u000a\u000a\u000a\u000aSPECIMENS SUBMITTED:\u000a\u000aA: BREAST CORE BIOPSY, LEFT\u000a\u000a\u000a\u000a
p314
ag148
aa(lp315
VFINAL DIAGNOSIS\u000a\u000aCERTIFIES THAT HE/SHE HAS PERSONALLY REVIEWED THIS CASE AND CONFIRMED OR\u000a\u000aCORRECTED THE DIAGNOSIS.\u000a\u000a\u000a\u000a\u000a\u000aCLINICAL HISTORY\u000a\u000a50 YEAR OLD FEMALE WITH 8 X 11 X 9 MM IRREGULAR HYPOECHOIC MASS AT 9 O'CLOCK IN\u000a\u000aTHE RIGHT BREAST.  ? IDC VERSUS RADIAL SCAR.\u000a\u000a\u000a\u000aSPECIMENS SUBMITTED:\u000a\u000aA: BREAST LESION CORE BIOPSY, RIGHT\u000a\u000a\u000a\u000a
p316
ag148
aa(lp317
VFINAL DIAGNOSIS\u000a\u000aCERTIFIES THAT HE/SHE HAS PERSONALLY REVIEWED THIS CASE AND CONFIRMED OR\u000a\u000aCORRECTED THE DIAGNOSIS.\u000a\u000a\u000a\u000a\u000a\u000aCLINICAL HISTORY\u000a\u000a50 YEAR OLD FEMALE WITH HISTORY OF INCREASING CALCIFICATIONS IN THE LEFT BREAST\u000a\u000aIN THE UPPER OUTER QUADRANT, STATUS POST STEREOTACTIC GUIDED BIOPSY, ?\u000a\u000aFIBROCYSTIC CHANGES VERSUS DCIS.  TARGETED CALCIFICATIONS ARE IN THE X-RAYED\u000a\u000aSPECIMEN.  HISTORY OF LCIS IN THE RIGHT BREAST 2007 (PATHOLOGY READ AS LCIS/DCIS\u000a\u000aAT OUTSIDE HOSPITAL, READ OS LCIS AT MGH).\u000a\u000a\u000a\u000aSPECIMENS SUBMITTED:\u000a\u000aA: BREAST CORE BIOPSY, LEFT\u000a\u000a\u000a\u000a
p318
ag148
aa(lp319
VFINAL DIAGNOSIS\u000a\u000aCERTIFIES THAT HE/SHE HAS PERSONALLY REVIEWED THIS CASE AND CONFIRMED OR\u000a\u000aCORRECTED THE DIAGNOSIS.\u000a\u000a\u000a\u000a\u000a\u000aCLINICAL HISTORY\u000a\u000a50 YEAR OLD FEMALE WITH INDETERMINATE CALCIFICATIONS IN RIGHT UPPER OUTER\u000a\u000aBREAST, ? FCC VS. DCIS.  TARGETED CALCIFICATIONS ARE IN THE SPECIMEN,\u000a\u000a\u000a\u000aSPECIMENS SUBMITTED:\u000a\u000aA: BREAST CORE BIOPSY, RIGHT UPPER OUTER\u000a\u000a\u000a\u000a
p320
ag148
aa(lp321
VFINAL DIAGNOSIS\u000a\u000aCERTIFIES THAT HE/SHE HAS PERSONALLY REVIEWED THIS CASE AND CONFIRMED OR\u000a\u000aCORRECTED THE DIAGNOSIS.\u000a\u000a\u000a\u000a\u000a\u000aCLINICAL HISTORY\u000a\u000a50 YEAR OLD FEMALE WITH MULTIPLE BILATERAL BREAST CYSTS AND RIGHT BREAST 11\u000a\u000aO'CLOCK MASS. ? FIBROADENOMA VS HAMARTOMA VS COMPLICATED CYST.\u000a\u000a\u000a\u000aSPECIMENS SUBMITTED:\u000a\u000aA: BREAST CORE BIOPSY, RIGHT\u000a\u000a\u000a\u000a
p322
ag148
aa(lp323
VFINAL DIAGNOSIS\u000a\u000aCERTIFIES THAT HE/SHE HAS PERSONALLY REVIEWED THIS CASE AND CONFIRMED OR\u000a\u000aCORRECTED THE DIAGNOSIS.\u000a\u000a\u000a\u000a\u000a\u000aCLINICAL HISTORY\u000a\u000a50 YEAR OLD FEMALE, PRESENTS FOR STEREOTACTIC CORE BIOPSY OF INDETERMINATE\u000a\u000aCALCIFICATIONS IN THE LEFT BREAST, ? DCIS VS. FCC VS. OTHER.  BIOPSIED\u000a\u000aCALCIFICATIONS ARE PRESENT IN THE SPECIMEN CASSETTE.\u000a\u000a\u000a\u000aSPECIMENS SUBMITTED:\u000a\u000aA: BREAST CORE BIOPSY, LEFT\u000a\u000a\u000a\u000a
p324
ag148
aa(lp325
VFINAL DIAGNOSIS\u000a\u000aCERTIFIES THAT HE/SHE HAS PERSONALLY REVIEWED THIS CASE AND CONFIRMED OR\u000a\u000aCORRECTED THE DIAGNOSIS.\u000a\u000a\u000a\u000a\u000a\u000aCLINICAL HISTORY\u000a\u000a50 YO FEMALE WITH 6:00 PERIAREOLAR MASS, LEFT BREAST.  ? FCC, APOCRINE\u000a\u000aMETAPLASIA, IDC/ILC.\u000a\u000a\u000a\u000aSPECIMENS SUBMITTED:\u000a\u000aA: BREAST CORE BIOPSY, LEFT MASS\u000a\u000a\u000a\u000a
p326
ag148
aa(lp327
VFINAL DIAGNOSIS\u000a\u000aCERTIFIES THAT HE/SHE HAS PERSONALLY REVIEWED THIS CASE AND CONFIRMED OR\u000a\u000aCORRECTED THE DIAGNOSIS.\u000a\u000a\u000a\u000a\u000a\u000aCLINICAL HISTORY\u000a\u000a50 YO FEMALE WITH RIGHT 12 O'CLOCK ARCHITECTURAL DISTORTION AND POSSIBLE\u000a\u000aHYPOECHOIC SONOGRAPHIC CORRELATE ? ILC VS IDC VS RADIAL SCAR VS OTHER.\u000a\u000a\u000a\u000aSPECIMENS SUBMITTED:\u000a\u000aA: BREAST CORE BIOPSY, RIGHT\u000a\u000a\u000a\u000a
p328
ag148
aa(lp329
VFINAL DIAGNOSIS\u000a\u000aCERTIFIES THAT HE/SHE HAS PERSONALLY REVIEWED THIS CASE AND CONFIRMED OR\u000a\u000aCORRECTED THE DIAGNOSIS.\u000a\u000a\u000a\u000a\u000a\u000aCLINICAL HISTORY\u000a\u000a50 YO FEMALE WITH RIGHT 12 O'CLOCK ARCHITECTURAL DISTORTION AND POSSIBLE\u000a\u000aHYPOECHOIC SONOGRAPHIC CORRELATE ? ILC VS IDC VS RADIAL SCAR VS OTHER.\u000a\u000a\u000a\u000aSPECIMENS SUBMITTED:\u000a\u000aA: BREAST CORE BIOPSY, RIGHT\u000a\u000a\u000a\u000a
p330
ag148
aa(lp331
VFINAL DIAGNOSIS\u000a\u000aCERTIFIES THAT HE/SHE HAS PERSONALLY REVIEWED THIS CASE AND CONFIRMED OR\u000a\u000aCORRECTED THE DIAGNOSIS.\u000a\u000a\u000a\u000a\u000a\u000aCLINICAL HISTORY\u000a\u000a50 YO WITH LEFT BREAST, CALCIFICATIONS. ? FCC VS DCIS.\u000a\u000a\u000a\u000aSPECIMENS SUBMITTED:\u000a\u000aA: BREAST CORE BIOPSY, LEFT\u000a\u000a\u000a\u000a
p332
ag148
aa(lp333
VFINAL DIAGNOSIS\u000a\u000aCERTIFIES THAT HE/SHE HAS PERSONALLY REVIEWED THIS CASE AND CONFIRMED OR\u000a\u000aCORRECTED THE DIAGNOSIS.\u000a\u000a\u000a\u000a\u000a\u000aCLINICAL HISTORY\u000a\u000a51 YEAR OLD FEMALE PRESENTS FOR STEREOTACTIC CORE BIOPSY OF CALCIFICATIONS IN\u000a\u000aTHE UPPER OUTER LEFT BREAST.  DIFFERENTIAL DIAGNOSIS INCLUDES DUCTAL CARCINOMA\u000a\u000aIN-SITU VERSUS OTHER.  BIOPSIED CALCIFICATIONS ARE PRESENT IN THE CASSETTE.\u000a\u000a\u000a\u000aSPECIMENS SUBMITTED:\u000a\u000aA: BREAST CORE BIOPSY, LEFT\u000a\u000a\u000a\u000a
p334
ag148
aa(lp335
VFINAL DIAGNOSIS\u000a\u000aCERTIFIES THAT HE/SHE HAS PERSONALLY REVIEWED THIS CASE AND CONFIRMED OR\u000a\u000aCORRECTED THE DIAGNOSIS.\u000a\u000a\u000a\u000a\u000a\u000aCLINICAL HISTORY\u000a\u000a51 YEAR OLD FEMALE WITH CALCIFICATIONS IN UPPER OUTER QUADRANT OF LEFT BREAST. ?\u000a\u000aDCIS VS FCC VS FIBROADENOMA ? CALCIUM OXALATE. THERE IS A SINGLE CALCIFICATION\u000a\u000aIN THE X-RAYED SPECIMEN.\u000a\u000a\u000a\u000aSPECIMENS SUBMITTED:\u000a\u000aA: BREAST CORE BIOPSY, LEFT\u000a\u000a\u000a\u000a
p336
ag148
aa(lp337
VFINAL DIAGNOSIS\u000a\u000aCERTIFIES THAT HE/SHE HAS PERSONALLY REVIEWED THIS CASE AND CONFIRMED OR\u000a\u000aCORRECTED THE DIAGNOSIS.\u000a\u000a\u000a\u000a\u000a\u000aCLINICAL HISTORY\u000a\u000a51 YEAR OLD FEMALE WITH HYPOECHOIC MASS IN RIGHT BREAST WITH ASSOCIATED\u000a\u000aARCHITECTURAL DISTORTION, ? INVASIVE DUCTAL CARCINOMA.\u000a\u000a\u000a\u000aSPECIMENS SUBMITTED:\u000a\u000aA: BREAST CORE BIOPSY, RIGHT 2:00\u000a\u000a\u000a\u000a
p338
ag148
aa(lp339
VFINAL DIAGNOSIS\u000a\u000aCERTIFIES THAT HE/SHE HAS PERSONALLY REVIEWED THIS CASE AND CONFIRMED OR\u000a\u000aCORRECTED THE DIAGNOSIS.\u000a\u000a\u000a\u000a\u000a\u000aCLINICAL HISTORY\u000a\u000a51 YEAR OLD FEMALE WITH LEFT BREAST CALCIFICATIONS, ? DCIS VS. DYSTROPHIC\u000a\u000aCALCIFICATION.  HISTORY OF RIGHT BREAST ADH, TARGETED CALCIFICATIONS ARE IN THE\u000a\u000aSPECIMEN.\u000a\u000a\u000a\u000aSPECIMENS SUBMITTED:\u000a\u000aA: BREAST CORE BIOPSY, LEFT\u000a\u000a\u000a\u000a
p340
ag148
aa(lp341
VFINAL DIAGNOSIS\u000a\u000aCERTIFIES THAT HE/SHE HAS PERSONALLY REVIEWED THIS CASE AND CONFIRMED OR\u000a\u000aCORRECTED THE DIAGNOSIS.\u000a\u000a\u000a\u000a\u000a\u000aCLINICAL HISTORY\u000a\u000a51 YEAR OLD FEMALE WITH NEW SUSPICIOUS CALCIFICATIONS IN THE LEFT BREAST. ? DCIS\u000a\u000aVS. FCC. CALCIFICATIONS ARE IN SPECIMEN.\u000a\u000a\u000a\u000aSPECIMENS SUBMITTED:\u000a\u000aA: BREAST CORE BIOPSY, LEFT\u000a\u000a\u000a\u000a
p342
ag148
aa(lp343
VFINAL DIAGNOSIS\u000a\u000aCERTIFIES THAT HE/SHE HAS PERSONALLY REVIEWED THIS CASE AND CONFIRMED OR\u000a\u000aCORRECTED THE DIAGNOSIS.\u000a\u000a\u000a\u000a\u000a\u000aCLINICAL HISTORY\u000a\u000a51 YEAR OLD FEMALE, STATUS POST STEREOTACTIC CORE BIOPSY OF CALCIFICATIONS IN\u000a\u000aCENTRAL SUPERIOR LEFT BREAST, ? DCIS VS. FCC.  TARGETED CALCIFICATIONS ARE IN\u000a\u000aTHE SPECIMEN.  POSITIVE HISTORY OF BILATERAL LCIS, DIAGNOSED AT EMERSON HOSPITAL\u000a\u000aON CORE BIOPSY IN 2004.\u000a\u000a\u000a\u000aSPECIMENS SUBMITTED:\u000a\u000aA: BREAST CORE BIOPSY, LEFT\u000a\u000a\u000a\u000a
p344
ag148
aa(lp345
VFINAL DIAGNOSIS\u000a\u000aCERTIFIES THAT HE/SHE HAS PERSONALLY REVIEWED THIS CASE AND CONFIRMED OR\u000a\u000aCORRECTED THE DIAGNOSIS.\u000a\u000a\u000a\u000a\u000a\u000aCLINICAL HISTORY\u000a\u000a51 YO FEMALE WITH HISTORY OF COWDEN'S SYNDROME PRESENTS WITH LINEAR NON MASS\u000a\u000aENHANCEMENT IN THE LEFT BREAST, SUBAREOLAR REGION. DIFF: DCIS, PAPILLOMA.\u000a\u000a\u000a\u000aSPECIMENS SUBMITTED:\u000a\u000aA: BREAST CORE BIOPSY, LEFT SUBAREOLAR NONMASS\u000a\u000a\u000a\u000a
p346
ag148
aa(lp347
VFINAL DIAGNOSIS\u000a\u000aCERTIFIES THAT HE/SHE HAS PERSONALLY REVIEWED THIS CASE AND CONFIRMED OR\u000a\u000aCORRECTED THE DIAGNOSIS.\u000a\u000a\u000a\u000a\u000a\u000aCLINICAL HISTORY\u000a\u000a51 YO FEMALE WITH RIGHT BREAST CALCIFICATIONS, WITH IN THE LATERAL BREAST. ? FCC\u000a\u000aVS. DCIS.  * TARGETED CALCIFICATIONS ARE PRESENT IN THE SPECIMEN TYPE.\u000a\u000a\u000a\u000aSPECIMENS SUBMITTED:\u000a\u000aA: BREAST CORE BIOPSY, RIGHT\u000a\u000a\u000a\u000a
p348
ag148
aa(lp349
VFINAL DIAGNOSIS\u000a\u000aCERTIFIES THAT HE/SHE HAS PERSONALLY REVIEWED THIS CASE AND CONFIRMED OR\u000a\u000aCORRECTED THE DIAGNOSIS.\u000a\u000a\u000a\u000a\u000a\u000aCLINICAL HISTORY\u000a\u000a51YO F WITH CALCIFICATIONS IN THE RIGHT BREAST. ? FCC VS. DCIS.\u000a\u000a\u000a\u000aSPECIMENS SUBMITTED:\u000a\u000aA: BREAST CORE BIOPSY, RIGHT\u000a\u000a\u000a\u000a
p350
ag148
aa(lp351
VFINAL DIAGNOSIS\u000a\u000aCERTIFIES THAT HE/SHE HAS PERSONALLY REVIEWED THIS CASE AND CONFIRMED OR\u000a\u000aCORRECTED THE DIAGNOSIS.\u000a\u000a\u000a\u000a\u000a\u000aCLINICAL HISTORY\u000a\u000a52 YEAR OLD FEMALE WITH NEW DIAGNOSIS OF RIGHT BREAST CANCER WITH CALCIFICATIONS\u000a\u000aIN THE LEFT BREAST.  ? IDC VERSUS DCIS VERSUS OTHER.  THE CALCIFICATIONS ARE IN\u000a\u000aTHE SPECIMEN.\u000a\u000a\u000a\u000aSPECIMENS SUBMITTED:\u000a\u000aA: BREAST CORE BIOPSY, LEFT\u000a\u000a\u000a\u000a
p352
ag148
aa(lp353
VFINAL DIAGNOSIS\u000a\u000aCERTIFIES THAT HE/SHE HAS PERSONALLY REVIEWED THIS CASE AND CONFIRMED OR\u000a\u000aCORRECTED THE DIAGNOSIS.\u000a\u000a\u000a\u000a\u000a\u000aCLINICAL HISTORY\u000a\u000a52 YEAR OLD FEMALE WITH NEW/INCREASING CALCIFICATIONS IN THE RIGHT UPPER OUTER\u000a\u000aBREAST, SAMPLED CALCIFICATIONS ARE IN THE CASSETTE.\u000a\u000a? FIBROADENOMA VERSUS DUCTAL CARCINOMA IN-SITU.\u000a\u000a\u000a\u000aSPECIMENS SUBMITTED:\u000a\u000aA: BREAST, RIGHT, CORE BIOPSY\u000a\u000a\u000a\u000a
p354
ag148
aa(lp355
VFINAL DIAGNOSIS\u000a\u000aCERTIFIES THAT HE/SHE HAS PERSONALLY REVIEWED THIS CASE AND CONFIRMED OR\u000a\u000aCORRECTED THE DIAGNOSIS.\u000a\u000a\u000a\u000a\u000a\u000aCLINICAL HISTORY\u000a\u000a52 YEAR OLD FEMALE WITH SUBTLE/ILL DEFINED HYPOECHOIC AREA 14 X 7 X 16 MM AT 9\u000a\u000aO'CLOCK, 7 CM FROM NIPPLE, WITH ARCHITECTURAL DISTORTION ON MAMMOGRAM, HISTORY\u000a\u000aOF PRIOR BENIGN BIOPSY RIGHT BREAST. ? CANCER VS. RADIAL SCAR.\u000a\u000a\u000a\u000aSPECIMENS SUBMITTED:\u000a\u000aA: BREAST CORE BIOPSY, RIGHT 9:00 7 CM FROM NIPPLE\u000a\u000a\u000a\u000a
p356
ag148
aa(lp357
VFINAL DIAGNOSIS\u000a\u000aCERTIFIES THAT HE/SHE HAS PERSONALLY REVIEWED THIS CASE AND CONFIRMED OR\u000a\u000aCORRECTED THE DIAGNOSIS.\u000a\u000a\u000a\u000a\u000a\u000aCLINICAL HISTORY\u000a\u000a52 YEAR OLD WITH INDETERMINATE CALCIFICATIONS IN THE RIGHT LOWER, SLIGHTLY INNER\u000a\u000aBREAST PRESENTS FOR STEREOTACTIC CORE BIOPSY.  BIOPSY CALCIFICATIONS ARE IN BLUE\u000a\u000aCASSETTE.  ? FIBROADENOMA VERSUS SCLEROSING ADENOSIS VERSUS CALCIUM OXALATE.\u000a\u000a\u000a\u000aSPECIMENS SUBMITTED:\u000a\u000aA: BREAST CORE BIOPSY, RIGHT\u000a\u000a\u000a\u000a
p358
ag148
aa(lp359
VFINAL DIAGNOSIS\u000a\u000aCERTIFIES THAT HE/SHE HAS PERSONALLY REVIEWED THIS CASE AND CONFIRMED OR\u000a\u000aCORRECTED THE DIAGNOSIS.\u000a\u000a\u000a\u000a\u000a\u000aCLINICAL HISTORY\u000a\u000a52 YEAR-OLD FEMALE WITH AN IRREGULAR, SPICULATED, DOMINANT MASS IN THE OUTER,\u000a\u000aSLIGHTLY UPPER RIGHT BREAST, AND A 2ND 5MM AREA OF ENHANCEMENT LOCATED 3.0 CM\u000a\u000aANTERIOR TO THE DOMINANT MASS, FOR MR GUIDED BIOPSY OF BOTH SITES.\u000a\u000a\u000a\u000aSPECIMENS SUBMITTED:\u000a\u000aA: BREAST MASS CORE BIOPSY, DOMINANT SPICULATED  RIGHT\u000a\u000aB: BREAST CORE BIOPSY,SMALL FOCUS OF ENHANCEMENT ANTERIOR TO DOMINANT MASS ABOVE\u000a\u000aIN RIGHT\u000a\u000a\u000a\u000a
p360
ag148
aa(lp361
VFINAL DIAGNOSIS\u000a\u000aCERTIFIES THAT HE/SHE HAS PERSONALLY REVIEWED THIS CASE AND CONFIRMED OR\u000a\u000aCORRECTED THE DIAGNOSIS.\u000a\u000a\u000a\u000a\u000a\u000aCLINICAL HISTORY\u000a\u000a53 YEAR OLD FEMALE MR GUIDED CORE BIOPSY, 6 MM NON-MASS-LIKE ENHANCEMENT,\u000a\u000aPOSTERIOR OUTER BREAST (RIGHT)  R/O CA.  HISTORY OF RIGHT BREAST HAMARTOMA; LEFT\u000a\u000aBREAST ATYPICAL DUCTAL HYPERPLASIA / FLAT EPITHELIAL ATYPIA 2011.\u000a\u000a\u000a\u000aSPECIMENS SUBMITTED:\u000a\u000aA: BREAST CORE BIOPSY, RIGHT\u000a\u000a\u000a\u000a
p362
ag148
aa(lp363
VFINAL DIAGNOSIS\u000a\u000aCERTIFIES THAT HE/SHE HAS PERSONALLY REVIEWED THIS CASE AND CONFIRMED OR\u000a\u000aCORRECTED THE DIAGNOSIS.\u000a\u000a\u000a\u000a\u000a\u000aCLINICAL HISTORY\u000a\u000a53 YEAR OLD FEMALE PRESENT FOR STEREOTACTIC CORE BIOPSY OF INDETERMINATE\u000a\u000aCALCIFICATIONS IN THE RIGHT BREAST.  BIOPSIED CALCIFICATIONS ARE PRESENT IN THE\u000a\u000aSPECIMEN.  ? DUCTAL CARCINOMA IN SITU VERSUS FIBROADENOMA VERSUS FIBROCYSTIC\u000a\u000aCHANGES VERSUS OTHER.\u000a\u000a\u000a\u000aSPECIMENS SUBMITTED:\u000a\u000aA: BREAST CORE BIOPSY, RIGHT\u000a\u000a\u000a\u000a
p364
ag148
aa(lp365
VFINAL DIAGNOSIS\u000a\u000aCERTIFIES THAT HE/SHE HAS PERSONALLY REVIEWED THIS CASE AND CONFIRMED OR\u000a\u000aCORRECTED THE DIAGNOSIS.\u000a\u000a\u000a\u000a\u000a\u000aCLINICAL HISTORY\u000a\u000a53 YEAR OLD FEMALE PRESENT FOR STEREOTACTIC CORE BIOPSY OF INDETERMINATE\u000a\u000aCALCIFICATIONS IN THE RIGHT BREAST.  BIOPSIED CALCIFICATIONS ARE PRESENT IN THE\u000a\u000aSPECIMEN.  ? DUCTAL CARCINOMA IN SITU VERSUS FIBROADENOMA VERSUS FIBROCYSTIC\u000a\u000aCHANGES VERSUS OTHER.\u000a\u000a\u000a\u000aSPECIMENS SUBMITTED:\u000a\u000aA: BREAST CORE BIOPSY, RIGHT\u000a\u000a\u000a\u000a
p366
ag148
aa(lp367
VFINAL DIAGNOSIS\u000a\u000aCERTIFIES THAT HE/SHE HAS PERSONALLY REVIEWED THIS CASE AND CONFIRMED OR\u000a\u000aCORRECTED THE DIAGNOSIS.\u000a\u000a\u000a\u000a\u000a\u000aCLINICAL HISTORY\u000a\u000a53 YEAR OLD FEMALE WITH PRIOR HISTORY OF RIGHT BREAST BIOPSY WITH PATHOLOGY\u000a\u000aATYPICAL DUCTAL HYPERPLASIA/LOBULAR NEOPLASIA (ATYPICAL LOBULAR HYPERPLASIA) IN\u000a\u000a2009.  FOUND TO HAVE AN 8 MM ENHANCING MASS IN CENTRAL/MEDIAL RIGHT BREAST WITH\u000a\u000aWASH-OUT KINETICS.  CONSIDER INVASIVE DUCTAL CARCINOMA VERSUS OTHER.\u000a\u000a\u000a\u000aSPECIMENS SUBMITTED:\u000a\u000aA: BREAST CORE BIOPSY, RIGHT\u000a\u000a\u000a\u000a
p368
ag148
aa(lp369
VFINAL DIAGNOSIS\u000a\u000aCERTIFIES THAT HE/SHE HAS PERSONALLY REVIEWED THIS CASE AND CONFIRMED OR\u000a\u000aCORRECTED THE DIAGNOSIS.\u000a\u000a\u000a\u000a\u000a\u000aCLINICAL HISTORY\u000a\u000a53 YEAR OLD FEMALE WITH RIGHT UPPER INNER CALCIFICATIONS,  ? FIBROCYSTIC CHANGES\u000a\u000aVS. SCLEROSING ADENOSIS VS. DCIS.\u000a\u000a\u000a\u000aSPECIMENS SUBMITTED:\u000a\u000aA: BREAST CORE BIOPSY, RIGHT UPPER INNER QUADRANT\u000a\u000a\u000a\u000a
p370
ag148
aa(lp371
VFINAL DIAGNOSIS\u000a\u000aCERTIFIES THAT HE/SHE HAS PERSONALLY REVIEWED THIS CASE AND CONFIRMED OR\u000a\u000aCORRECTED THE DIAGNOSIS.\u000a\u000a\u000a\u000a\u000a\u000aCLINICAL HISTORY\u000a\u000a53 YEAR OLD FEMALE WITH SUSPICIOUS HYPOECHOIC MASS IN LEFT BREAST, ? INVASIVE\u000a\u000aDUCTAL CARCINOMA.\u000a\u000a\u000a\u000aSPECIMENS SUBMITTED:\u000a\u000aA: BREAST CORE BIOPSY, LEFT\u000a\u000a\u000a\u000a
p372
ag148
aa(lp373
VFINAL DIAGNOSIS\u000a\u000aCERTIFIES THAT HE/SHE HAS PERSONALLY REVIEWED THIS CASE AND CONFIRMED OR\u000a\u000aCORRECTED THE DIAGNOSIS.\u000a\u000a\u000a\u000a\u000a\u000aCLINICAL HISTORY\u000a\u000a53 YEAR OLD WITH HYPOECHOIC LEFT BREAST LESION. ? FBA VS CYST VS OTHER VS\u000a\u000aCLUSTERED MICROCYSTS/APOCRINE METAPLASIA.\u000a\u000a\u000a\u000aSPECIMENS SUBMITTED:\u000a\u000aA: BREAST CORE BIOPSY, LEFT\u000a\u000a\u000a\u000a
p374
ag148
aa(lp375
VFINAL DIAGNOSIS\u000a\u000aCERTIFIES THAT HE/SHE HAS PERSONALLY REVIEWED THIS CASE AND CONFIRMED OR\u000a\u000aCORRECTED THE DIAGNOSIS.\u000a\u000a\u000a\u000a\u000a\u000aCLINICAL HISTORY\u000a\u000a53 YEAR OLD WITH HYPOECHOIC LEFT BREAST LESION. ? FBA VS CYST VS OTHER VS\u000a\u000aCLUSTERED MICROCYSTS/APOCRINE METAPLASIA.\u000a\u000a\u000a\u000aSPECIMENS SUBMITTED:\u000a\u000aA: BREAST CORE BIOPSY, LEFT\u000a\u000a\u000a\u000a
p376
ag148
aa(lp377
VFINAL DIAGNOSIS\u000a\u000aCERTIFIES THAT HE/SHE HAS PERSONALLY REVIEWED THIS CASE AND CONFIRMED OR\u000a\u000aCORRECTED THE DIAGNOSIS.\u000a\u000a\u000a\u000a\u000a\u000aCLINICAL HISTORY\u000a\u000a54 Y/O WITH TWO GROUPS OF RIGHT BREAST CALCIFICATIONS.  ? DCIS.  SPECIMEN A:\u000a\u000aUPPER OUTER CALCIFICATIONS.  SPECIMEN B: LOWER OUTER CALCIFICATIONS.  TARGETED\u000a\u000aCALCIFICATION ARE PRESENT IN TRAY.\u000a\u000a\u000a\u000aSPECIMENS SUBMITTED:\u000a\u000aA: BREAST CORE BIOPSY, RIGHT UPPER OUTER\u000a\u000aB: BREAST CORE BIOPSY, RIGHT LOWER OUTER\u000a\u000a\u000a\u000a
p378
ag148
aa(lp379
VFINAL DIAGNOSIS\u000a\u000aCERTIFIES THAT HE/SHE HAS PERSONALLY REVIEWED THIS CASE AND CONFIRMED OR\u000a\u000aCORRECTED THE DIAGNOSIS.\u000a\u000a\u000a\u000a\u000a\u000aCLINICAL HISTORY\u000a\u000a54 YEAR OLD FEMALE WITH CALCIFICATION IN THE LEFT BREAST.  THE CALCIFICATIONS\u000a\u000aARE IN THE CASSETTE.  ? FIBROCYSTIC CHANGE VERSUS SCLEROSING ADENOSIS VERSUS\u000a\u000aOTHER.\u000a\u000a\u000a\u000aSPECIMENS SUBMITTED:\u000a\u000aA: BREAST CORE BIOPSY, LEFT\u000a\u000a\u000a\u000a
p380
ag148
aa(lp381
VFINAL DIAGNOSIS\u000a\u000aCERTIFIES THAT HE/SHE HAS PERSONALLY REVIEWED THIS CASE AND CONFIRMED OR\u000a\u000aCORRECTED THE DIAGNOSIS.\u000a\u000a\u000a\u000a\u000a\u000aCLINICAL HISTORY\u000a\u000a54 YEAR OLD FEMALE WITH INDETERMINATE CALCIFICATION IN UPPER BREAST, SCLEROSING\u000a\u000aADENOSIS VERSUS DUCTAL CARCINOMA IN SITU, TARGETED CALCIFICATIONS ARE IN THE\u000a\u000aSPECIMEN.\u000a\u000a\u000a\u000aSPECIMENS SUBMITTED:\u000a\u000aA: BREAST CORE BIOPSY, RIGHT UPPER\u000a\u000a\u000a\u000a
p382
ag148
aa(lp383
VFINAL DIAGNOSIS\u000a\u000aCERTIFIES THAT HE/SHE HAS PERSONALLY REVIEWED THIS CASE AND CONFIRMED OR\u000a\u000aCORRECTED THE DIAGNOSIS.\u000a\u000a\u000a\u000a\u000a\u000aCLINICAL HISTORY\u000a\u000a54 YEAR OLD FEMALE WITH INDETERMINATE CALCIFICATIONS IN THE RIGHT BREAST.  ?\u000a\u000aFIBROCYSTIC CHANGE VERSUS SCLEROSING ADENOSIS VERSUS DCIS.  THE TARGETED\u000a\u000aCALCIFICATIONS ARE CONFIRMED WITH RADIOGRAPH AND PLACED IN CASSETTE.\u000a\u000a\u000a\u000aSPECIMENS SUBMITTED:\u000a\u000aA: BREAST CORE BIOPSY, RIGHT\u000a\u000a\u000a\u000a
p384
ag148
aa(lp385
VFINAL DIAGNOSIS\u000a\u000aCERTIFIES THAT HE/SHE HAS PERSONALLY REVIEWED THIS CASE AND CONFIRMED OR\u000a\u000aCORRECTED THE DIAGNOSIS.\u000a\u000a\u000a\u000a\u000a\u000aCLINICAL HISTORY\u000a\u000a54 YEAR OLD FEMALE WITH INDETERMINATE CALCIFICATIONS IN THE UPPER INNER QUADRANT\u000a\u000aOF THE RIGHT BREAST.  BIOPSIED.  CALCIFICATIONS ARE PRESENT IN THE CASSETTE.\u000a\u000a\u000a\u000aSPECIMENS SUBMITTED:\u000a\u000aA: BREAST CORE BIOPSY, RIGHT\u000a\u000a\u000a\u000a
p386
ag148
aa(lp387
VFINAL DIAGNOSIS\u000a\u000aCERTIFIES THAT HE/SHE HAS PERSONALLY REVIEWED THIS CASE AND CONFIRMED OR\u000a\u000aCORRECTED THE DIAGNOSIS.\u000a\u000a\u000a\u000a\u000a\u000aCLINICAL HISTORY\u000a\u000a54 YEAR OLD FEMALE WITH PERSONAL HISTORY OF LEFT BREAST INVASIVE DUCTAL\u000a\u000aCARCINOMA IN 1998.  NOW WITH CALCIFICATIONS INVOLVING CIRCUMSCRIBED LOBULATED\u000a\u000aMASS WITH MIXED ECHOGENICITY IN THE RIGHT BREAST.  ? FIBROCYSTIC CHANGE VERSUS\u000a\u000aINVOLUTING FIBROADENOMA VERSUS MALIGNANCY.\u000a\u000a\u000a\u000aSPECIMENS SUBMITTED:\u000a\u000aA: BREAST CORE BIOPSY, RIGHT\u000a\u000a\u000a\u000a
p388
ag148
aa(lp389
VFINAL DIAGNOSIS\u000a\u000aCERTIFIES THAT HE/SHE HAS PERSONALLY REVIEWED THIS CASE AND CONFIRMED OR\u000a\u000aCORRECTED THE DIAGNOSIS.\u000a\u000a\u000a\u000a\u000a\u000aCLINICAL HISTORY\u000a\u000a54 YEAR OLD WITH RIGHT BREAST MASS AT 10:00, 4 CM FROM NIPPLE, MEASURING 1.3 X\u000a\u000a0.6 X 0.8 CM. DIFF: IDC, ILC, RADIAL SCAR.\u000a\u000a\u000a\u000aSPECIMENS SUBMITTED:\u000a\u000aA: BREAST CORE BIOPSY, RIGHT\u000a\u000a\u000a\u000a
p390
ag148
aa(lp391
VFINAL DIAGNOSIS\u000a\u000aCERTIFIES THAT HE/SHE HAS PERSONALLY REVIEWED THIS CASE AND CONFIRMED OR\u000a\u000aCORRECTED THE DIAGNOSIS.\u000a\u000a\u000a\u000a\u000a\u000aCLINICAL HISTORY\u000a\u000a54 YEAR OLD WITH RIGHT BREAST MASS AT 10:00, 4 CM FROM NIPPLE, MEASURING 1.3 X\u000a\u000a0.6 X 0.8 CM. DIFF: IDC, ILC, RADIAL SCAR.\u000a\u000a\u000a\u000aSPECIMENS SUBMITTED:\u000a\u000aA: BREAST CORE BIOPSY, RIGHT\u000a\u000a\u000a\u000a
p392
ag148
aa(lp393
VFINAL DIAGNOSIS\u000a\u000aCERTIFIES THAT HE/SHE HAS PERSONALLY REVIEWED THIS CASE AND CONFIRMED OR\u000a\u000aCORRECTED THE DIAGNOSIS.\u000a\u000a\u000a\u000a\u000a\u000aCLINICAL HISTORY\u000a\u000a55 YEAR OLD FEMALE WITH HYPOECHOIC MASS, COMPLEX, PARTIALLY CYSTIC, IN RIGHT\u000a\u000aBREAST, AND ENLARGED RIGHT AXILLARY NODE.  ? CANCER +/- METASTASIS VS.\u000a\u000aPAPILLOMA.  HISTORY OF MULTIPLE PRIOR BIOPSIES SHOWING PAPILLOMA (BWH).\u000a\u000a\u000a\u000aSPECIMENS SUBMITTED:\u000a\u000aA: BREAST CORE BIOPSY, RIGHT 12:00\u000a\u000aB: AXILLA CORE BIOPSY, RIGHT\u000a\u000a\u000a\u000a
p394
ag148
aa(lp395
VFINAL DIAGNOSIS\u000a\u000aCERTIFIES THAT HE/SHE HAS PERSONALLY REVIEWED THIS CASE AND CONFIRMED OR\u000a\u000aCORRECTED THE DIAGNOSIS.\u000a\u000a\u000a\u000a\u000a\u000aCLINICAL HISTORY\u000a\u000a55 YEAR OLD FEMALE WITH ROUND CIRCUMSCRIBED, HYPOECHOIC MASS IN THE RIGHT BREAST\u000a\u000aAT 9 O'CLOCK.  ? PAPILLOMA VS. IDC VS. OTHER VS. FCC.\u000a\u000a\u000a\u000aSPECIMENS SUBMITTED:\u000a\u000aA: BREAST CORE BIOPSY, RIGHT\u000a\u000a\u000a\u000a
p396
ag148
aa(lp397
VFINAL DIAGNOSIS\u000a\u000aCERTIFIES THAT HE/SHE HAS PERSONALLY REVIEWED THIS CASE AND CONFIRMED OR\u000a\u000aCORRECTED THE DIAGNOSIS.\u000a\u000a\u000a\u000a\u000a\u000aCLINICAL HISTORY\u000a\u000a56 FEMALE WITH LEFT BREAST MASS - CENTRALLY HYPOECHOIC WITH HYPERECHOIC RIM.\u000a\u000aINITIALLY THOUGHT TO BE A HEMATOMA, BUT NOT RESOLVING. CONSIDER HEMATOMA,\u000a\u000aINTRAMAMMARY LYMPH NODE VS. IDC.\u000a\u000a\u000a\u000aSPECIMENS SUBMITTED:\u000a\u000aA: BREAST CORE BIOPSY, LEFT\u000a\u000a\u000a\u000a
p398
ag148
aa(lp399
VFINAL DIAGNOSIS\u000a\u000aCERTIFIES THAT HE/SHE HAS PERSONALLY REVIEWED THIS CASE AND CONFIRMED OR\u000a\u000aCORRECTED THE DIAGNOSIS.\u000a\u000a\u000a\u000a\u000a\u000aCLINICAL HISTORY\u000a\u000a56 FEMALE WITH LEFT BREAST MASS - CENTRALLY HYPOECHOIC WITH HYPERECHOIC RIM.\u000a\u000aINITIALLY THOUGHT TO BE A HEMATOMA, BUT NOT RESOLVING. CONSIDER HEMATOMA,\u000a\u000aINTRAMAMMARY LYMPH NODE VS. IDC.\u000a\u000a\u000a\u000aSPECIMENS SUBMITTED:\u000a\u000aA: BREAST CORE BIOPSY, LEFT\u000a\u000a\u000a\u000a
p400
ag148
aa(lp401
VFINAL DIAGNOSIS\u000a\u000aCERTIFIES THAT HE/SHE HAS PERSONALLY REVIEWED THIS CASE AND CONFIRMED OR\u000a\u000aCORRECTED THE DIAGNOSIS.\u000a\u000a\u000a\u000a\u000a\u000aCLINICAL HISTORY\u000a\u000a56 YEAR OLD FEMALE WITH INCREASING CALCIFICATIONS IN LEFT BREAST, ? DCIS.\u000a\u000aTARGETED CALCIFICATIONS ARE IN THE SPECIMEN.\u000a\u000a\u000a\u000aSPECIMENS SUBMITTED:\u000a\u000aA: BREAST CORE BIOPSY, LEFT\u000a\u000a\u000a\u000a
p402
ag148
aa(lp403
VFINAL DIAGNOSIS\u000a\u000aCERTIFIES THAT HE/SHE HAS PERSONALLY REVIEWED THIS CASE AND CONFIRMED OR\u000a\u000aCORRECTED THE DIAGNOSIS.\u000a\u000a\u000a\u000a\u000a\u000aCLINICAL HISTORY\u000a\u000a56 YEAR OLD FEMALE WITH INCREASING CALCIFICATIONS IN LEFT BREAST, ? DCIS.\u000a\u000aTARGETED CALCIFICATIONS ARE IN THE SPECIMEN.\u000a\u000a\u000a\u000aSPECIMENS SUBMITTED:\u000a\u000aA: BREAST CORE BIOPSY, LEFT\u000a\u000a\u000a\u000a
p404
ag148
aa(lp405
VFINAL DIAGNOSIS\u000a\u000aCERTIFIES THAT HE/SHE HAS PERSONALLY REVIEWED THIS CASE AND CONFIRMED OR\u000a\u000aCORRECTED THE DIAGNOSIS.\u000a\u000a\u000a\u000a\u000a\u000aCLINICAL HISTORY\u000a\u000a56 YEAR OLD FEMALE WITH MULTIPLE BILATERAL BREAST BIOPSIES YIELDING PATHOLOGY OF\u000a\u000aADH, ALH, LCIS.   PATIENT UNABLE TO TOLERATE CHEMO PROPHYLAXIS.  FIRST MRI\u000a\u000aDEMONSTRATES POSTERIOR RIGHT BREAST LESION, UPPER OUTER.  PATIENT STATUS POST\u000a\u000aMRI-GUIDED CORE BIOPSY OF 8 X 6 X 7 MM ENHANCING MASS POSTERIOR UOQ - ? FA, PASH\u000a\u000aVS. IDC.  POSITIVE HISTORY OF RIGHT BREAST BIOPSY 2006 MGH SEVERE ADH, LCIS;\u000a\u000aPAPILLOMAS; ALH.\u000a\u000a\u000a\u000aSPECIMENS SUBMITTED:\u000a\u000aA: BREAST CORE BIOPSY, RIGHT\u000a\u000a\u000a\u000a
p406
ag148
aa(lp407
VFINAL DIAGNOSIS\u000a\u000aCERTIFIES THAT HE/SHE HAS PERSONALLY REVIEWED THIS CASE AND CONFIRMED OR\u000a\u000aCORRECTED THE DIAGNOSIS.\u000a\u000a\u000a\u000a\u000a\u000aCLINICAL HISTORY\u000a\u000a56 YO FEMALE WITH INDETERMINATE CALCIFICATIONS RIGHT BREAST. HISTORY OF LEFT\u000a\u000aBREAST CANCER 2003. HISTORY OF RIGHT BREAST EXCISIONAL BIOPSY.  ? FAT NECROSIS\u000a\u000aVS FCC VS DCIS.\u000a\u000a\u000a\u000aSPECIMENS SUBMITTED:\u000a\u000aA: BREAST CORE BIOPSY, RIGHT\u000a\u000a\u000a\u000a
p408
ag148
aa(lp409
VFINAL DIAGNOSIS\u000a\u000aCERTIFIES THAT HE/SHE HAS PERSONALLY REVIEWED THIS CASE AND CONFIRMED OR\u000a\u000aCORRECTED THE DIAGNOSIS.\u000a\u000a\u000a\u000a\u000a\u000aCLINICAL HISTORY\u000a\u000a57 YEAR OLD FEMALE WITH LEFT BREAST CALCIFICATIONS, CLUSTERED.  CONSIDER DCIS,\u000a\u000aSCLEROSING ADENOSIS, VS. OTHER.  CALCS IN CASSETTE.\u000a\u000a\u000a\u000aSPECIMENS SUBMITTED:\u000a\u000aA: BREAST CORE BIOPSY, LEFT\u000a\u000a\u000a\u000a
p410
ag148
aa(lp411
VFINAL DIAGNOSIS\u000a\u000aCERTIFIES THAT HE/SHE HAS PERSONALLY REVIEWED THIS CASE AND CONFIRMED OR\u000a\u000aCORRECTED THE DIAGNOSIS.\u000a\u000a\u000a\u000a\u000a\u000aCLINICAL HISTORY\u000a\u000a58 YEAR OLD FEMALE WITH A 7 MM X 6 MM X 7 MM HYPOECHOIC MASS AT 5 O'CLOCK IN THE\u000a\u000aLEFT BREAST, ? IDC VS. FIBROADENOMA VS. OTHER.\u000a\u000a\u000a\u000aSPECIMENS SUBMITTED:\u000a\u000aA: BREAST CORE BIOPSY, LEFT\u000a\u000a\u000a\u000a
p412
ag148
aa(lp413
VFINAL DIAGNOSIS\u000a\u000aCERTIFIES THAT HE/SHE HAS PERSONALLY REVIEWED THIS CASE AND CONFIRMED OR\u000a\u000aCORRECTED THE DIAGNOSIS.\u000a\u000a\u000a\u000a\u000a\u000aCLINICAL HISTORY\u000a\u000a58 YEAR OLD FEMALE WITH RIGHT BREAST CALCIFICATION FOR STEREOTACTIC CORE BIOPSY.\u000a\u000a\u000a\u000a\u000a\u000aSPECIMENS SUBMITTED:\u000a\u000aA: BREAST CORE BIOPSY, RIGHT\u000a\u000a\u000a\u000a
p414
ag148
aa(lp415
VFINAL DIAGNOSIS\u000a\u000aCERTIFIES THAT HE/SHE HAS PERSONALLY REVIEWED THIS CASE AND CONFIRMED OR\u000a\u000aCORRECTED THE DIAGNOSIS.\u000a\u000a\u000a\u000a\u000a\u000aCLINICAL HISTORY\u000a\u000a59 YEAR OLD FEMALE WITH INDETERMINATE CALCIFICATIONS IN THE RIGHT BREAST.  ?\u000a\u000aDCIS VERSUS SCLEROSING ADENOSIS VERSUS FIBROCYSTIC CHANGE.  THE TARGETED\u000a\u000aCALCIFICATIONS ARE CONFIRMED WITH RADIOGRAPH AND PLACED IN CASSETTE.\u000a\u000a\u000a\u000aSPECIMENS SUBMITTED:\u000a\u000aA: BREAST CORE BIOPSY, RIGHT\u000a\u000a\u000a\u000a
p416
ag148
aa(lp417
VFINAL DIAGNOSIS\u000a\u000aCERTIFIES THAT HE/SHE HAS PERSONALLY REVIEWED THIS CASE AND CONFIRMED OR\u000a\u000aCORRECTED THE DIAGNOSIS.\u000a\u000a\u000a\u000a\u000a\u000aCLINICAL HISTORY\u000a\u000a59 YEAR OLD FEMALE WITH LEFT BREAST CLUSTERED CALCIFICATIONS.  ? FIBROCYSTIC\u000a\u000aCHANGE VERSUS DUCTAL CARCINOMA IN-SITU VERSUS OTHER.  THE CALCIFICATIONS ARE IN\u000a\u000aTHE CASSETTE.\u000a\u000a\u000a\u000aSPECIMENS SUBMITTED:\u000a\u000aA: BREAST CORE BIOPSY, LEFT\u000a\u000a\u000a\u000a
p418
ag148
aa(lp419
VFINAL DIAGNOSIS\u000a\u000aCERTIFIES THAT HE/SHE HAS PERSONALLY REVIEWED THIS CASE AND CONFIRMED OR\u000a\u000aCORRECTED THE DIAGNOSIS.\u000a\u000a\u000a\u000a\u000a\u000aCLINICAL HISTORY\u000a\u000a60 YEAR OLD FEMALE WITH INDETERMINATE CALCIFICATIONS IN THE LEFT UPPER OUTER\u000a\u000aBREAST, ? FIBROADENOMA VS. DCIS.  BIOPSIED CALCIFICATIONS ARE PRESENT IN THE\u000a\u000aCASSETTE.\u000a\u000a\u000a\u000aSPECIMENS SUBMITTED:\u000a\u000aA: BREAST CORE BIOPSY, LEFT\u000a\u000a\u000a\u000a
p420
ag148
aa(lp421
VFINAL DIAGNOSIS\u000a\u000aCERTIFIES THAT HE/SHE HAS PERSONALLY REVIEWED THIS CASE AND CONFIRMED OR\u000a\u000aCORRECTED THE DIAGNOSIS.\u000a\u000a\u000a\u000a\u000a\u000aCLINICAL HISTORY\u000a\u000a60 YEAR OLD FEMALE WITH LARGE LEFT BREAST MASS AT 2:00 POSITION. FNA BX SHOWED\u000a\u000aNEOPLASTIC CELLS.  ? PHYLLODES VS IDC.\u000a\u000a\u000a\u000aSPECIMENS SUBMITTED:\u000a\u000aA: BREAST CORE BIOPSY, LEFT 2:00\u000a\u000a\u000a\u000a
p422
ag148
aa(lp423
VFINAL DIAGNOSIS\u000a\u000aCERTIFIES THAT HE/SHE HAS PERSONALLY REVIEWED THIS CASE AND CONFIRMED OR\u000a\u000aCORRECTED THE DIAGNOSIS.\u000a\u000a\u000a\u000a\u000a\u000aCLINICAL HISTORY\u000a\u000a60 YEAR OLD FEMALE WITH LEFT BREAST CALCIFICATION, ? DCIS.  TARGETED\u000a\u000aCALCIFICATIONS ARE IN THE SPECIMEN.\u000a\u000a\u000a\u000aSPECIMENS SUBMITTED:\u000a\u000aA: BREAST CORE BIOPSY, LEFT\u000a\u000a\u000a\u000a
p424
ag148
aa(lp425
VFINAL DIAGNOSIS\u000a\u000aCERTIFIES THAT HE/SHE HAS PERSONALLY REVIEWED THIS CASE AND CONFIRMED OR\u000a\u000aCORRECTED THE DIAGNOSIS.\u000a\u000a\u000a\u000a\u000a\u000aCLINICAL HISTORY\u000a\u000a60 YEAR OLD WITH SUSPICIOUS HYPOECHOIC MASS AND ASSOCIATED ARCHITECTURAL\u000a\u000aDISTORTION IN THE LEFT BREAST 2 O'CLOCK 10 CM FROM THE NIPPLE, ?INVASIVE DUCTAL\u000a\u000aCARCINOMA.\u000a\u000a\u000a\u000aSPECIMENS SUBMITTED:\u000a\u000aA: BREAST CORE BIOPSY, LEFT\u000a\u000a\u000a\u000a
p426
ag148
aa(lp427
VFINAL DIAGNOSIS\u000a\u000aCERTIFIES THAT HE/SHE HAS PERSONALLY REVIEWED THIS CASE AND CONFIRMED OR\u000a\u000aCORRECTED THE DIAGNOSIS.\u000a\u000a\u000a\u000a\u000a\u000aCLINICAL HISTORY\u000a\u000a60 YO F WITH HX OF LEFT BREAST ADH, IN 2002.  10 MM AREA OF LINEAR NON-MASS\u000a\u000aENHANCEMENT, IN CENTRAL RIGHT BREAST  S/P MRI GUIDED BX OF THIS AREA - ? PASH\u000a\u000aVS. DCIS\u000a\u000a\u000a\u000aSPECIMENS SUBMITTED:\u000a\u000aA: BREAST CORE BIOPSY, RIGHT\u000a\u000a\u000a\u000a
p428
ag148
aa(lp429
VFINAL DIAGNOSIS\u000a\u000aCERTIFIES THAT HE/SHE HAS PERSONALLY REVIEWED THIS CASE AND CONFIRMED OR\u000a\u000aCORRECTED THE DIAGNOSIS.\u000a\u000a\u000a\u000a\u000a\u000aCLINICAL HISTORY\u000a\u000a61 YEAR OLD FEMALE WITH SUSPICIOUS SEGMENTED CALCIFICATIONS IN THE RIGHT BREAST,\u000a\u000aSTEREOTATIC CORE BIOPSY.  CONSIDER DCIS AND OTHERS.  TARGETED CALCIFICATIONS ARE\u000a\u000aIN THE SPECIMEN.\u000a\u000a\u000a\u000aSPECIMENS SUBMITTED:\u000a\u000aA: BREAST CORE BIOPSY, RIGHT\u000a\u000a\u000a\u000a
p430
ag148
aa(lp431
VFINAL DIAGNOSIS\u000a\u000aCERTIFIES THAT HE/SHE HAS PERSONALLY REVIEWED THIS CASE AND CONFIRMED OR\u000a\u000aCORRECTED THE DIAGNOSIS.\u000a\u000a\u000a\u000a\u000a\u000aCLINICAL HISTORY\u000a\u000a62 YEAR OLD FEMALE WITH HYPOECHOIC MASS IN THE LEFT BREAST AT 5:00.  LESION\u000a\u000aDISAPPEARED AFTER CORES.  MICROCYSTS?  PER ULTRASOUND REPORT, 0.6 CM CLUSTER OF\u000a\u000aMICROCYSTS.\u000a\u000a\u000a\u000aSPECIMENS SUBMITTED:\u000a\u000aA: BREAST CORE BIOPSY, LEFT 5:00\u000a\u000a\u000a\u000a
p432
ag148
aa(lp433
VFINAL DIAGNOSIS\u000a\u000aCERTIFIES THAT HE/SHE HAS PERSONALLY REVIEWED THIS CASE AND CONFIRMED OR\u000a\u000aCORRECTED THE DIAGNOSIS.\u000a\u000a\u000a\u000a\u000a\u000aCLINICAL HISTORY\u000a\u000a63 YO FEMALE WITH GROUPED CALCIFICATIONS IN THE LOWER INNER QUADRANT AT ANTERIOR\u000a\u000aDEPTH. ? DCIS, DEGENERATING FIBROADENOMA. THE CALCIFICATION ARE IN THE CASSETTE.\u000a\u000a\u000a\u000aSPECIMENS SUBMITTED:\u000a\u000aA: BREAST CORE BIOPSY, RIGHT\u000a\u000a\u000a\u000a
p434
ag148
aa(lp435
VFINAL DIAGNOSIS\u000a\u000aCERTIFIES THAT HE/SHE HAS PERSONALLY REVIEWED THIS CASE AND CONFIRMED OR\u000a\u000aCORRECTED THE DIAGNOSIS.\u000a\u000a\u000a\u000a\u000a\u000aCLINICAL HISTORY\u000a\u000a63 YO FEMALE WITH GROUPED CALCIFICATIONS IN THE LOWER INNER QUADRANT AT ANTERIOR\u000a\u000aDEPTH. ? DCIS, DEGENERATING FIBROADENOMA. THE CALCIFICATION ARE IN THE CASSETTE.\u000a\u000a\u000a\u000aSPECIMENS SUBMITTED:\u000a\u000aA: BREAST CORE BIOPSY, RIGHT\u000a\u000a\u000a\u000a
p436
ag148
aa(lp437
VFINAL DIAGNOSIS\u000a\u000aCERTIFIES THAT HE/SHE HAS PERSONALLY REVIEWED THIS CASE AND CONFIRMED OR\u000a\u000aCORRECTED THE DIAGNOSIS.\u000a\u000a\u000a\u000a\u000a\u000aCLINICAL HISTORY\u000a\u000a64 YEAR OLD F  STATUS POST US GUIDED CORE BIOPSY OF OVOID HYPOECHOIC MASS AT 8\u000a\u000aO'CLOCK RIGHT BREAST  6.0 X 5.0 X 7.0 MM.  ? FA VERSUS IDC.\u000a\u000a\u000a\u000aSPECIMENS SUBMITTED:\u000a\u000aA: BREAST CORE BIOPSY, RIGHT\u000a\u000a\u000a\u000a
p438
ag148
aa(lp439
VFINAL DIAGNOSIS\u000a\u000aCERTIFIES THAT HE/SHE HAS PERSONALLY REVIEWED THIS CASE AND CONFIRMED OR\u000a\u000aCORRECTED THE DIAGNOSIS.\u000a\u000a\u000a\u000a\u000a\u000aCLINICAL HISTORY\u000a\u000a64 YEAR OLD FEMALE WITH A HYPOECHOIC MASS IN THE RIGHT BREAST 12 O'CLOCK,\u000a\u000aPRESENT FOR ULTRASOUND GUIDED CORE BIOPSY, ? RADIAL SCAR VERSUS APOCRINE\u000a\u000aMETAPLASIA VERSUS OTHER.\u000a\u000a\u000a\u000aSPECIMENS SUBMITTED:\u000a\u000aA: BREAST CORE BIOPSY, RIGHT\u000a\u000a\u000a\u000a
p440
ag148
aa(lp441
VFINAL DIAGNOSIS\u000a\u000aCERTIFIES THAT HE/SHE HAS PERSONALLY REVIEWED THIS CASE AND CONFIRMED OR\u000a\u000aCORRECTED THE DIAGNOSIS.\u000a\u000a\u000a\u000a\u000a\u000aCLINICAL HISTORY\u000a\u000a64 YEAR OLD FEMALE WITH CALCIFICATIONS IN THE LEFT BREAST, PATIENT HAD ADH IN\u000a\u000aTHE RIGHT BREAST. ? FA VS ADH VS DCIS. XRAYED CALCIFICATIONS ARE IN THE\u000a\u000aCASSETTE.\u000a\u000a\u000a\u000aSPECIMENS SUBMITTED:\u000a\u000aA: BREAST CORE BIOPSY, LEFT\u000a\u000a\u000a\u000a
p442
ag148
aa(lp443
VFINAL DIAGNOSIS\u000a\u000aCERTIFIES THAT HE/SHE HAS PERSONALLY REVIEWED THIS CASE AND CONFIRMED OR\u000a\u000aCORRECTED THE DIAGNOSIS.\u000a\u000a\u000a\u000a\u000a\u000aCLINICAL HISTORY\u000a\u000a64 YEAR OLD FEMALE WITH INDETERMINATE CALCIFICATIONS IN THE LEFT BREAST.  THE\u000a\u000aTARGETED CALCIFICATIONS ARE PRESENT IN THE CASSETTE.  ? DUCTAL CARCINOMA IN SITU\u000a\u000aVERSUS FIBROADENOMA.\u000a\u000a\u000a\u000aSPECIMENS SUBMITTED:\u000a\u000aA: BREAST CORE BIOPSY, LEFT\u000a\u000a\u000a\u000a
p444
ag148
aa(lp445
VFINAL DIAGNOSIS\u000a\u000aCERTIFIES THAT HE/SHE HAS PERSONALLY REVIEWED THIS CASE AND CONFIRMED OR\u000a\u000aCORRECTED THE DIAGNOSIS.\u000a\u000a\u000a\u000a\u000a\u000aCLINICAL HISTORY\u000a\u000a65 Y.O. F W/ INDETERMINANT CALCIFICATIONS IN THE LEFT BREAST. FCC VS DCIS.\u000a\u000aX-RAYED CALCIFICATIONS ARE IN THE CASSETTE.\u000a\u000a\u000a\u000aSPECIMENS SUBMITTED:\u000a\u000aA: BREAST CORE BIOPSY, LEFT\u000a\u000a\u000a\u000a
p446
ag148
aa(lp447
VFINAL DIAGNOSIS\u000a\u000aCERTIFIES THAT HE/SHE HAS PERSONALLY REVIEWED THIS CASE AND CONFIRMED OR\u000a\u000aCORRECTED THE DIAGNOSIS.\u000a\u000a\u000a\u000a\u000a\u000aCLINICAL HISTORY\u000a\u000a65 YEAR OLD FEMALE WITH HISTORY OF LEFT BREAST MICROINVASIVE DUCTAL CARCINOMA IN\u000a\u000a2006, NOW WITH RIGHT BREAST MASS, ? CANCER.\u000a\u000a\u000a\u000aSPECIMENS SUBMITTED:\u000a\u000aA: BREAST CORE BIOPSY, RIGHT\u000a\u000a\u000a\u000a
p448
ag148
aa(lp449
VFINAL DIAGNOSIS\u000a\u000aCERTIFIES THAT HE/SHE HAS PERSONALLY REVIEWED THIS CASE AND CONFIRMED OR\u000a\u000aCORRECTED THE DIAGNOSIS.\u000a\u000a\u000a\u000a\u000a\u000aCLINICAL HISTORY\u000a\u000a65 YO F WITH CALCIFICATIONS IN THE LEFT BREAST, UPPER OUTER QUADRANT. HISTORY OF\u000a\u000aPRIOR LEFT BREAST BIOPSY AT MGH IN 1998 WITH SCLEROSING ADENOSIS AND FCC ON\u000a\u000aPATH. DIFF: FCC, DCIS. THE CALCIFICATIONS ARE IN THE CASSETTE.\u000a\u000a\u000a\u000aSPECIMENS SUBMITTED:\u000a\u000aA: BREAST CORE BIOPSY, LEFT\u000a\u000a\u000a\u000a
p450
ag148
aa(lp451
VFINAL DIAGNOSIS\u000a\u000aCERTIFIES THAT HE/SHE HAS PERSONALLY REVIEWED THIS CASE AND CONFIRMED OR\u000a\u000aCORRECTED THE DIAGNOSIS.\u000a\u000a\u000a\u000a\u000a\u000aCLINICAL HISTORY\u000a\u000a66 YEAR OLD FEMALE WITH FAMILY HISTORY OF BREAST AND OVARIAN CANCER, WITH 2\u000a\u000aSUSPICIOUS AREAS IN LEFT BREAST.  A.  SPICULATED MASS IN LOWER OUTER LEFT\u000a\u000aBREAST, 1.8 CM, ? INVASIVE DUCTAL CARCINOMA.  B.  CLUMPED, NON-MASS-LIKE\u000a\u000aENHANCEMENT IN UPPER CENTRAL LEFT BREAST, 5.8 X 1.8 CM, ? DUCTAL CARCINOMA IN\u000a\u000aSITU VERSUS INVASIVE DUCTAL CARCINOMA.\u000a\u000a\u000a\u000aSPECIMENS SUBMITTED:\u000a\u000aA: BREAST CORE BIOPSY, LEFT LOWER OUTER\u000a\u000aB: BREAST CORE BIOPSY, LEFT UPPER CENTRAL\u000a\u000a\u000a\u000a
p452
ag148
aa(lp453
VFINAL DIAGNOSIS\u000a\u000aCERTIFIES THAT HE/SHE HAS PERSONALLY REVIEWED THIS CASE AND CONFIRMED OR\u000a\u000aCORRECTED THE DIAGNOSIS.\u000a\u000a\u000a\u000a\u000a\u000aCLINICAL HISTORY\u000a\u000a67 YEAR OLD FEMALE WITH CALCIFICATIONS IN THE LEFT UPPER INNER BREAST.  A:\u000a\u000aCALCIFICATIONS, CONSIDER DCIS VS. OTHER.\u000a\u000a\u000a\u000aSPECIMENS SUBMITTED:\u000a\u000aA: BREAST CORE BIOPSY, LEFT\u000a\u000a\u000a\u000a
p454
ag148
aa(lp455
VFINAL DIAGNOSIS\u000a\u000aCERTIFIES THAT HE/SHE HAS PERSONALLY REVIEWED THIS CASE AND CONFIRMED OR\u000a\u000aCORRECTED THE DIAGNOSIS.\u000a\u000a\u000a\u000a\u000a\u000aCLINICAL HISTORY\u000a\u000a67 YEAR OLD FEMALE WITH CALCIFICATIONS IN THE LEFT UPPER INNER BREAST.  A:\u000a\u000aCALCIFICATIONS, CONSIDER DCIS VS. OTHER.\u000a\u000a\u000a\u000aSPECIMENS SUBMITTED:\u000a\u000aA: BREAST CORE BIOPSY, LEFT\u000a\u000a\u000a\u000a
p456
ag148
aa(lp457
VFINAL DIAGNOSIS\u000a\u000aCERTIFIES THAT HE/SHE HAS PERSONALLY REVIEWED THIS CASE AND CONFIRMED OR\u000a\u000aCORRECTED THE DIAGNOSIS.\u000a\u000a\u000a\u000a\u000a\u000aCLINICAL HISTORY\u000a\u000a67 YEAR OLD FEMALE WITH CALCIFICATIONS IN THE LEFT UPPER INNER BREAST.  A:\u000a\u000aCALCIFICATIONS, CONSIDER DCIS VS. OTHER.\u000a\u000a\u000a\u000aSPECIMENS SUBMITTED:\u000a\u000aA: BREAST CORE BIOPSY, LEFT\u000a\u000a\u000a\u000a
p458
ag148
aa(lp459
VFINAL DIAGNOSIS\u000a\u000aCERTIFIES THAT HE/SHE HAS PERSONALLY REVIEWED THIS CASE AND CONFIRMED OR\u000a\u000aCORRECTED THE DIAGNOSIS.\u000a\u000a\u000a\u000a\u000a\u000aCLINICAL HISTORY\u000a\u000a67 YEAR OLD FEMALE WITH LOBULATED HYPOECHOIC MASS IN THE RIGHT BREAST AT 9\u000a\u000aO'CLOCK, ? FIBROADENOMA VERSUS CLUSTER OF CYSTS VERSUS OTHER.\u000a\u000a\u000a\u000aSPECIMENS SUBMITTED:\u000a\u000aA: BREAST CORE BIOPSY, RIGHT\u000a\u000a\u000a\u000a
p460
ag148
aa(lp461
VFINAL DIAGNOSIS\u000a\u000aCERTIFIES THAT HE/SHE HAS PERSONALLY REVIEWED THIS CASE AND CONFIRMED OR\u000a\u000aCORRECTED THE DIAGNOSIS.\u000a\u000a\u000a\u000a\u000a\u000aCLINICAL HISTORY\u000a\u000a67 YEAR OLD FEMALE WITH SUSPICIOUS RIGHT BREAST CALCIFICATIONS. TARGETED\u000a\u000aCALCIFICATIONS ARE IN THE SPECIMEN CONTAINER.\u000a\u000a\u000a\u000aSPECIMENS SUBMITTED:\u000a\u000aA: BREAST CORE BIOPSY, RIGHT\u000a\u000a\u000a\u000a
p462
ag148
aa(lp463
VFINAL DIAGNOSIS\u000a\u000aCERTIFIES THAT HE/SHE HAS PERSONALLY REVIEWED THIS CASE AND CONFIRMED OR\u000a\u000aCORRECTED THE DIAGNOSIS.\u000a\u000a\u000a\u000a\u000a\u000aCLINICAL HISTORY\u000a\u000a67 YEAR OLD FEMALE WITH SUSPICIOUS RIGHT BREAST UPPER OUTER CALCIFICATIONS. ?\u000a\u000aDCIS , TARGETED CALCIFICATIONS ARE PRESENT IN THE X-RAYED SPECIMEN.\u000a\u000a\u000a\u000aSPECIMENS SUBMITTED:\u000a\u000aA: BREAST CORE BIOPSY, RIGHT\u000a\u000a\u000a\u000a
p464
ag148
aa(lp465
VFINAL DIAGNOSIS\u000a\u000aCERTIFIES THAT HE/SHE HAS PERSONALLY REVIEWED THIS CASE AND CONFIRMED OR\u000a\u000aCORRECTED THE DIAGNOSIS.\u000a\u000a\u000a\u000a\u000a\u000aCLINICAL HISTORY\u000a\u000a67 YO FEMALE WITH NEW FAINT CALCIFICATIONS IN SCREENING MAMMOGRAM, ? FIBROCYSTIC\u000a\u000aVS. OTHER.\u000a\u000a\u000a\u000aSPECIMENS SUBMITTED:\u000a\u000aA: BREAST CORE BIOPSY, LEFT\u000a\u000a\u000a\u000a
p466
ag148
aa(lp467
VFINAL DIAGNOSIS\u000a\u000aCERTIFIES THAT HE/SHE HAS PERSONALLY REVIEWED THIS CASE AND CONFIRMED OR\u000a\u000aCORRECTED THE DIAGNOSIS.\u000a\u000a\u000a\u000a\u000a\u000aCLINICAL HISTORY\u000a\u000a68 YEAR OLD FEMALE WITH CALCIFICATIONS IN LEFT BREAST, ? SECRETORY VERSUS FCC\u000a\u000aVERSUS DUCTAL CARCINOMA IN SITU, TARGETED CALCIFICATIONS ARE IN THE SPECIMEN.\u000a\u000a\u000a\u000aSPECIMENS SUBMITTED:\u000a\u000aA: BREAST CORE BIOPSY, LEFT\u000a\u000a\u000a\u000a
p468
ag148
aa(lp469
VFINAL DIAGNOSIS\u000a\u000aCERTIFIES THAT HE/SHE HAS PERSONALLY REVIEWED THIS CASE AND CONFIRMED OR\u000a\u000aCORRECTED THE DIAGNOSIS.\u000a\u000a\u000a\u000a\u000a\u000aCLINICAL HISTORY\u000a\u000a68 YEAR OLD FEMALE WITH INDETERMINATE CALCIFICATIONS IN THE RIGHT BREAST.  ?\u000a\u000aSCLEROSING ADENOSIS VERSUS FIBROCYSTIC CHANGE VERSUS DCIS.  THE TARGETED\u000a\u000aCALCIFICATIONS ARE CONFIRMED WITH RADIOGRAPH AND PLACED IN CASSETTE.\u000a\u000a\u000a\u000aSPECIMENS SUBMITTED:\u000a\u000aA: BREAST CORE BIOPSY, RIGHT\u000a\u000a\u000a\u000a
p470
ag148
aa(lp471
VFINAL DIAGNOSIS\u000a\u000aCERTIFIES THAT HE/SHE HAS PERSONALLY REVIEWED THIS CASE AND CONFIRMED OR\u000a\u000aCORRECTED THE DIAGNOSIS.\u000a\u000a\u000a\u000a\u000a\u000aCLINICAL HISTORY\u000a\u000a68 YEAR OLD WITH LOBULATED HYPOECHOIC MASS IS THE RIGHT BREAST AT 8 O'CLOCK.  ?\u000a\u000aDUCTAL CARCINOMA IN-SITU VERSUS FIBROADENOMA VERSUS OTHER.\u000a\u000a\u000a\u000aSPECIMENS SUBMITTED:\u000a\u000aA: BREAST, RIGHT 8:00, CORE BIOPSY\u000a\u000a\u000a\u000a
p472
ag148
aa(lp473
VFINAL DIAGNOSIS\u000a\u000aCERTIFIES THAT HE/SHE HAS PERSONALLY REVIEWED THIS CASE AND CONFIRMED OR\u000a\u000aCORRECTED THE DIAGNOSIS.\u000a\u000a\u000a\u000a\u000a\u000aCLINICAL HISTORY\u000a\u000a69 Y/O WITH AN AREA OF ARCHITECTURAL DISTORTION IN THE RIGHT LOWER OUTER BREAST\u000a\u000aPRESENTS FOR ULTRASOUND GUIDED CORE BIOPSY.  ? RADIAL SCAR VS. IDC V. BENIGN\u000a\u000aBREAST TISSUE\u000a\u000a\u000a\u000aSPECIMENS SUBMITTED:\u000a\u000aA: BREAST CORE BIOPSY, RIGHT\u000a\u000a\u000a\u000a
p474
ag148
aa(lp475
VFINAL DIAGNOSIS\u000a\u000aCERTIFIES THAT HE/SHE HAS PERSONALLY REVIEWED THIS CASE AND CONFIRMED OR\u000a\u000aCORRECTED THE DIAGNOSIS.\u000a\u000a\u000a\u000a\u000a\u000aCLINICAL HISTORY\u000a\u000a69 YEAR OLD FEMALE WITH RIGHT BREAST CALCIFICATIONS FOR STEREOTACTIC CORE\u000a\u000aBIOPSY.  ? DCIS VS. OTHER.  CALCIFICATIONS ARE IN THE RADIOGRAPHED SPECIMEN.\u000a\u000a\u000a\u000aSPECIMENS SUBMITTED:\u000a\u000aA: BREAST CORE BIOPSY, RIGHT\u000a\u000a\u000a\u000a
p476
ag148
aa(lp477
VFINAL DIAGNOSIS\u000a\u000aCERTIFIES THAT HE/SHE HAS PERSONALLY REVIEWED THIS CASE AND CONFIRMED OR\u000a\u000aCORRECTED THE DIAGNOSIS.\u000a\u000a\u000a\u000a\u000a\u000aCLINICAL HISTORY\u000a\u000a70 YEAR OLD FEMALE STATUS POST STEREOTACTIC CORE BIOPSY OF RIGHT UPPER INNER\u000a\u000aBREAST CALCIFICATIONS, ? DCIS VS. FIBROCYSTIC CHANGES VS. FIBROADENOMA. TARGETED\u000a\u000aCALCIFICATIONS IN X-RAYED SPECIMEN.\u000a\u000a\u000a\u000aSPECIMENS SUBMITTED:\u000a\u000aA: BREAST CORE BIOPSY, RIGHT\u000a\u000a\u000a\u000a
p478
ag148
aa(lp479
VFINAL DIAGNOSIS\u000a\u000aCERTIFIES THAT HE/SHE HAS PERSONALLY REVIEWED THIS CASE AND CONFIRMED OR\u000a\u000aCORRECTED THE DIAGNOSIS.\u000a\u000a\u000a\u000a\u000a\u000aCLINICAL HISTORY\u000a\u000a70 YEAR OLD FEMALE WITH FAINT CALCIFICATIONS IN THE RIGHT BREAST. HISTORY OF\u000a\u000aLEFT BREAST DCIS 10/6/2008, GR1, ER+, PR+. ? DCIS VS. FCC VS. OTHER.  THE\u000a\u000aCALCIFICATIONS ARE IN THE SPECIMEN CASSETTE.\u000a\u000a\u000a\u000aSPECIMENS SUBMITTED:\u000a\u000aA: BREAST CORE BIOPSY, RIGHT\u000a\u000a\u000a\u000a
p480
ag148
aa(lp481
VFINAL DIAGNOSIS\u000a\u000aCERTIFIES THAT HE/SHE HAS PERSONALLY REVIEWED THIS CASE AND CONFIRMED OR\u000a\u000aCORRECTED THE DIAGNOSIS.\u000a\u000a\u000a\u000a\u000a\u000aCLINICAL HISTORY\u000a\u000a71 YEAR OLD WOMAN, STATUS POST ULTRASOUND GUIDED CORE BIOPSY OF IRREGULAR\u000a\u000aHYPOECHOIC MASS, 5 X 3 X 6 MM AT 3 O'CLOCK LEFT BREAST, WITH ASSOCIATED\u000a\u000aARCHITECTURAL DISTORTION.  QUERY IDC VERSUS RADIAL SCAR.  PATIENT STATUS POST\u000a\u000aEXCISIONAL BIOPSY AT MGH 03/20/2006 OF RIGHT BREAST = RADIAL SCAR AND ALH.\u000a\u000a\u000a\u000aSPECIMENS SUBMITTED:\u000a\u000aA: BREAST CORE BIOPSY, LEFT\u000a\u000a\u000a\u000a
p482
ag148
aa(lp483
VFINAL DIAGNOSIS\u000a\u000aCERTIFIES THAT HE/SHE HAS PERSONALLY REVIEWED THIS CASE AND CONFIRMED OR\u000a\u000aCORRECTED THE DIAGNOSIS.\u000a\u000a\u000a\u000a\u000a\u000aCLINICAL HISTORY\u000a\u000a71 YO FEMALE WITH LEFT BREAST UPPER OUTER CALCIFICATIONS.  ? FCC VS. SCLEROSING\u000a\u000aADENOSIS VS. DCIS.\u000a\u000a\u000a\u000aSPECIMENS SUBMITTED:\u000a\u000aA: BREAST CORE BIOPSY, LEFT UPPER OUTER QUADRANT\u000a\u000a\u000a\u000a
p484
ag148
aa(lp485
VFINAL DIAGNOSIS\u000a\u000aCERTIFIES THAT HE/SHE HAS PERSONALLY REVIEWED THIS CASE AND CONFIRMED OR\u000a\u000aCORRECTED THE DIAGNOSIS.\u000a\u000a\u000a\u000a\u000a\u000aCLINICAL HISTORY\u000a\u000a72 YEAR OLD FEMALE WITH CLUSTER OF CALCIFICATIONS IN THE RIGHT BREAST.  PERSONAL\u000a\u000aHISTORY OF RIGHT BREAST BIOPSY AT UNIVERSITY OF MASSACHUSETTS IN 2004 THAT WAS\u000a\u000aREPORTEDLY BENIGN.  THE CALCIFICATIONS ARE IN THE CASSETTE. ? FIBROCYSTIC CHANGE\u000a\u000aVS. SCLEROSING ADENOSIS VS. DCIS VS. OTHER.\u000a\u000a\u000a\u000aSPECIMENS SUBMITTED:\u000a\u000aA: BREAST CORE BIOPSY, RIGHT\u000a\u000a\u000a\u000a
p486
ag148
aa(lp487
VFINAL DIAGNOSIS\u000a\u000aCERTIFIES THAT HE/SHE HAS PERSONALLY REVIEWED THIS CASE AND CONFIRMED OR\u000a\u000aCORRECTED THE DIAGNOSIS.\u000a\u000a\u000a\u000a\u000a\u000aCLINICAL HISTORY\u000a\u000a72 YEAR OLD FEMALE WITH CLUSTER OF CALCIFICATIONS IN THE RIGHT BREAST.  PERSONAL\u000a\u000aHISTORY OF RIGHT BREAST BIOPSY AT UNIVERSITY OF MASSACHUSETTS IN 2004 THAT WAS\u000a\u000aREPORTEDLY BENIGN.  THE CALCIFICATIONS ARE IN THE CASSETTE. ? FIBROCYSTIC CHANGE\u000a\u000aVS. SCLEROSING ADENOSIS VS. DCIS VS. OTHER.\u000a\u000a\u000a\u000aSPECIMENS SUBMITTED:\u000a\u000aA: BREAST CORE BIOPSY, RIGHT\u000a\u000a\u000a\u000a
p488
ag148
aa(lp489
VFINAL DIAGNOSIS\u000a\u000aCERTIFIES THAT HE/SHE HAS PERSONALLY REVIEWED THIS CASE AND CONFIRMED OR\u000a\u000aCORRECTED THE DIAGNOSIS.\u000a\u000a\u000a\u000a\u000a\u000aCLINICAL HISTORY\u000a\u000a72 YEAR OLD FEMALE WITH CLUSTER OF CALCIFICATIONS IN THE RIGHT BREAST.  PERSONAL\u000a\u000aHISTORY OF RIGHT BREAST BIOPSY AT UNIVERSITY OF MASSACHUSETTS IN 2004 THAT WAS\u000a\u000aREPORTEDLY BENIGN.  THE CALCIFICATIONS ARE IN THE CASSETTE. ? FIBROCYSTIC CHANGE\u000a\u000aVS. SCLEROSING ADENOSIS VS. DCIS VS. OTHER.\u000a\u000a\u000a\u000aSPECIMENS SUBMITTED:\u000a\u000aA: BREAST CORE BIOPSY, RIGHT\u000a\u000a\u000a\u000a
p490
ag148
aa(lp491
VFINAL DIAGNOSIS\u000a\u000aCERTIFIES THAT HE/SHE HAS PERSONALLY REVIEWED THIS CASE AND CONFIRMED OR\u000a\u000aCORRECTED THE DIAGNOSIS.\u000a\u000a\u000a\u000a\u000a\u000aCLINICAL HISTORY\u000a\u000a73 YEAR OLD FEMALE WITH 2 AREAS OF CALCIFICATIONS IN THE OUTER BREAST, ? DCIS\u000a\u000aVS. OTHER.  THE SPECIMENS ARE IN THE RADIOGRAPHIC SPECIMENS.\u000a\u000a\u000a\u000aSPECIMENS SUBMITTED:\u000a\u000aA: BREAST CORE BIOPSY, LEFT POSTERIOR\u000a\u000aB: BREAST CORE BIOPSY, LEFT MID\u000a\u000a\u000a\u000a
p492
ag148
aa(lp493
VFINAL DIAGNOSIS\u000a\u000aCERTIFIES THAT HE/SHE HAS PERSONALLY REVIEWED THIS CASE AND CONFIRMED OR\u000a\u000aCORRECTED THE DIAGNOSIS.\u000a\u000a\u000a\u000a\u000a\u000aCLINICAL HISTORY\u000a\u000a75 YEAR OLD FEMALE WITH CALCIFICATIONS IN RIGHT BREAST ON SCREENING MAMMOGRAPHY,\u000a\u000aSUSPICIOUS ON DIAGNOSTIC MAMMOGRAPHY, ? OIL CYST VS DCIS. CALCIFICATIONS ARE IN\u000a\u000aTHE SPECIMEN.\u000a\u000a\u000a\u000aSPECIMENS SUBMITTED:\u000a\u000aA: BREAST CORE BIOPSY, RIGHT LOWER OUTER\u000a\u000a\u000a\u000a
p494
ag148
aa(lp495
VFINAL DIAGNOSIS\u000a\u000aCERTIFIES THAT HE/SHE HAS PERSONALLY REVIEWED THIS CASE AND CONFIRMED OR\u000a\u000aCORRECTED THE DIAGNOSIS.\u000a\u000a\u000a\u000a\u000a\u000aCLINICAL HISTORY\u000a\u000a80 YEAR OLD FEMALE WITH OVAL HYPOECHOIC MASS IN THE LEFT BREAST AT 3 O'CLOCK.  ?\u000a\u000aPAPILLOMA VERSUS INVASIVE DUCTAL CARCINOMA.\u000a\u000a\u000a\u000aSPECIMENS SUBMITTED:\u000a\u000aA: BREAST CORE BIOPSY, LEFT\u000a\u000a\u000a\u000a
p496
ag148
aa(lp497
VFINAL DIAGNOSIS\u000a\u000aCERTIFIES THAT HE/SHE HAS PERSONALLY REVIEWED THIS CASE AND CONFIRMED OR\u000a\u000aCORRECTED THE DIAGNOSIS.\u000a\u000a\u000a\u000a\u000a\u000aCLINICAL HISTORY\u000a\u000a80 YEAR OLD FEMALE WITH ULTRASOUND GUIDED BIOPSY OF LEFT BREAST MASS, AT 12:00,\u000a\u000a1 CM FROM THE NIPPLE. HISTORY OF RIGHT MASTECTOMY WITH EXTENSIVE DCIS, GR 3 IN\u000a\u000a2011. DIFFERENTIAL: COMPLICATED CYST VS DUCTAL ECTASIA VS MALIGNANCY.\u000a\u000a\u000a\u000aSPECIMENS SUBMITTED:\u000a\u000aA: BREAST CORE BIOPSY, LEFT 12:00, 1 CM FN\u000a\u000a\u000a\u000a
p498
ag148
aa(lp499
VFINAL DIAGNOSIS\u000a\u000aCERTIFIES THAT HE/SHE HAS PERSONALLY REVIEWED THIS CASE AND CONFIRMED OR\u000a\u000aCORRECTED THE DIAGNOSIS.\u000a\u000a\u000a\u000a\u000a\u000aCLINICAL HISTORY\u000a\u000aARCHITECTURAL DISTORTION IN THE LEFT BREAST\u000a\u000a\u000a\u000aSPECIMENS SUBMITTED:\u000a\u000aA: BREAST CORE BIOPSY, LEFT, "3 O'CLOCK" 5 CM FROM THE NIPPLE\u000a\u000a\u000a\u000a
p500
ag148
aa(lp501
VFINAL DIAGNOSIS\u000a\u000aCERTIFIES THAT HE/SHE HAS PERSONALLY REVIEWED THIS CASE AND CONFIRMED OR\u000a\u000aCORRECTED THE DIAGNOSIS.\u000a\u000a\u000a\u000a\u000a\u000aCLINICAL HISTORY\u000a\u000aCALCIFICATIONS IN THE LEFT BREAST\u000a\u000a\u000a\u000aSPECIMENS SUBMITTED:\u000a\u000aA: BREAST CORE BIOPSY, LEFT\u000a\u000a\u000a\u000a
p502
ag148
aa(lp503
VFINAL DIAGNOSIS\u000a\u000aCERTIFIES THAT HE/SHE HAS PERSONALLY REVIEWED THIS CASE AND CONFIRMED OR\u000a\u000aCORRECTED THE DIAGNOSIS.\u000a\u000a\u000a\u000a\u000a\u000aCLINICAL HISTORY\u000a\u000aCALCIFICATIONS IN THE LEFT BREAST\u000a\u000a\u000a\u000aSPECIMENS SUBMITTED:\u000a\u000aA: BREAST CORE BIOPSY, LEFT\u000a\u000a\u000a\u000a
p504
ag148
aa(lp505
VFINAL DIAGNOSIS\u000a\u000aCERTIFIES THAT HE/SHE HAS PERSONALLY REVIEWED THIS CASE AND CONFIRMED OR\u000a\u000aCORRECTED THE DIAGNOSIS.\u000a\u000a\u000a\u000a\u000a\u000aCLINICAL HISTORY\u000a\u000aCALCIFICATIONS IN THE LEFT BREAST\u000a\u000a\u000a\u000aSPECIMENS SUBMITTED:\u000a\u000aA: BREAST CORE BIOPSY, LEFT\u000a\u000a\u000a\u000a
p506
ag148
aa(lp507
VFINAL DIAGNOSIS\u000a\u000aCERTIFIES THAT HE/SHE HAS PERSONALLY REVIEWED THIS CASE AND CONFIRMED OR\u000a\u000aCORRECTED THE DIAGNOSIS.\u000a\u000a\u000a\u000a\u000a\u000aCLINICAL HISTORY\u000a\u000aCALCIFICATIONS IN THE LEFT BREAST\u000a\u000a\u000a\u000aSPECIMENS SUBMITTED:\u000a\u000aA: BREAST CORE BIOPSY, LEFT, UPPER OUTER\u000a\u000a\u000a\u000a
p508
ag148
aa(lp509
VFINAL DIAGNOSIS\u000a\u000aCERTIFIES THAT HE/SHE HAS PERSONALLY REVIEWED THIS CASE AND CONFIRMED OR\u000a\u000aCORRECTED THE DIAGNOSIS.\u000a\u000a\u000a\u000a\u000a\u000aCLINICAL HISTORY\u000a\u000aCALCIFICATIONS IN THE LEFT BREAST\u000a\u000a\u000a\u000aSPECIMENS SUBMITTED:\u000a\u000aA: BREAST CORE BIOPSY, LEFT, UPPER OUTER\u000a\u000a\u000a\u000a
p510
ag148
aa(lp511
VFINAL DIAGNOSIS\u000a\u000aCERTIFIES THAT HE/SHE HAS PERSONALLY REVIEWED THIS CASE AND CONFIRMED OR\u000a\u000aCORRECTED THE DIAGNOSIS.\u000a\u000a\u000a\u000a\u000a\u000aCLINICAL HISTORY\u000a\u000aCALCIFICATIONS IN THE LEFT BREAST\u000a\u000a\u000a\u000aSPECIMENS SUBMITTED:\u000a\u000aA: BREAST CORE BIOPSY, LEFT, UPPER OUTER QUADRANT\u000a\u000a\u000a\u000a
p512
ag148
aa(lp513
VFINAL DIAGNOSIS\u000a\u000aCERTIFIES THAT HE/SHE HAS PERSONALLY REVIEWED THIS CASE AND CONFIRMED OR\u000a\u000aCORRECTED THE DIAGNOSIS.\u000a\u000a\u000a\u000a\u000a\u000aCLINICAL HISTORY\u000a\u000aCALCIFICATIONS IN THE LEFT BREAST, UPPER OUTER QUADRANT. HISTORY OF COLON CANCER\u000a\u000a(STAGE IIIB) IN 2010.  ? SCLEROSING ADENOSIS, FCC, DCIS.\u000a\u000a\u000a\u000aSPECIMENS SUBMITTED:\u000a\u000aA: BREAST CORE BIOPSY, LEFT UPPER OUTER QUADRANT\u000a\u000a\u000a\u000a
p514
ag148
aa(lp515
VFINAL DIAGNOSIS\u000a\u000aCERTIFIES THAT HE/SHE HAS PERSONALLY REVIEWED THIS CASE AND CONFIRMED OR\u000a\u000aCORRECTED THE DIAGNOSIS.\u000a\u000a\u000a\u000a\u000a\u000aCLINICAL HISTORY\u000a\u000aCALCIFICATIONS IN THE RIGHT BREAST\u000a\u000a\u000a\u000aSPECIMENS SUBMITTED:\u000a\u000aA: BREAST CORE BIOPSY, RIGHT\u000a\u000a\u000a\u000a
p516
ag148
aa(lp517
VFINAL DIAGNOSIS\u000a\u000aCERTIFIES THAT HE/SHE HAS PERSONALLY REVIEWED THIS CASE AND CONFIRMED OR\u000a\u000aCORRECTED THE DIAGNOSIS.\u000a\u000a\u000a\u000a\u000a\u000aCLINICAL HISTORY\u000a\u000aCALCIFICATIONS IN THE RIGHT BREAST\u000a\u000a\u000a\u000aSPECIMENS SUBMITTED:\u000a\u000aA: BREAST CORE BIOPSY, RIGHT, LOWER OUTER\u000a\u000a\u000a\u000a
p518
ag148
aa(lp519
VFINAL DIAGNOSIS\u000a\u000aCERTIFIES THAT HE/SHE HAS PERSONALLY REVIEWED THIS CASE AND CONFIRMED OR\u000a\u000aCORRECTED THE DIAGNOSIS.\u000a\u000a\u000a\u000a\u000a\u000aCLINICAL HISTORY\u000a\u000aCALCIFICATIONS IN THE RIGHT BREAST\u000a\u000a\u000a\u000aSPECIMENS SUBMITTED:\u000a\u000aA: BREAST CORE BIOPSY, RIGHT, LOWER OUTER\u000a\u000a\u000a\u000a
p520
ag148
aa(lp521
VFINAL DIAGNOSIS\u000a\u000aCERTIFIES THAT HE/SHE HAS PERSONALLY REVIEWED THIS CASE AND CONFIRMED OR\u000a\u000aCORRECTED THE DIAGNOSIS.\u000a\u000a\u000a\u000a\u000a\u000aCLINICAL HISTORY\u000a\u000aCALCIFICATIONS IN THE RIGHT BREAST\u000a\u000a\u000a\u000aSPECIMENS SUBMITTED:\u000a\u000aA: BREAST CORE BIOPSY, RIGHT, UPPER OUTER QUADRANT\u000a\u000a\u000a\u000a
p522
ag148
aa(lp523
VFINAL DIAGNOSIS\u000a\u000aCERTIFIES THAT HE/SHE HAS PERSONALLY REVIEWED THIS CASE AND CONFIRMED OR\u000a\u000aCORRECTED THE DIAGNOSIS.\u000a\u000a\u000a\u000a\u000a\u000aCLINICAL HISTORY\u000a\u000aDISTORTION IN THE LEFT BREAST\u000a\u000a\u000a\u000aSPECIMENS SUBMITTED:\u000a\u000aA: BREAST CORE BIOPSY, LEFT, "2 O'CLOCK"\u000a\u000a\u000a\u000a
p524
ag148
aa(lp525
VFINAL DIAGNOSIS\u000a\u000aCERTIFIES THAT HE/SHE HAS PERSONALLY REVIEWED THIS CASE AND CONFIRMED OR\u000a\u000aCORRECTED THE DIAGNOSIS.\u000a\u000a\u000a\u000a\u000a\u000aCLINICAL HISTORY\u000a\u000aENHANCEMENT IN THE RIGHT BREAST\u000a\u000a\u000a\u000aSPECIMENS SUBMITTED:\u000a\u000aA: BREAST CORE BIOPSY, RIGHT\u000a\u000a\u000a\u000a
p526
ag148
aa(lp527
VFINAL DIAGNOSIS\u000a\u000aCERTIFIES THAT HE/SHE HAS PERSONALLY REVIEWED THIS CASE AND CONFIRMED OR\u000a\u000aCORRECTED THE DIAGNOSIS.\u000a\u000a\u000a\u000a\u000a\u000aCLINICAL HISTORY\u000a\u000aENHANCEMENT ON MRI OF THE RIGHT BREAST\u000a\u000a\u000a\u000aSPECIMENS SUBMITTED:\u000a\u000aA: BREAST CORE BIOPSY, RIGHT\u000a\u000a\u000a\u000a
p528
ag148
aa(lp529
VFINAL DIAGNOSIS\u000a\u000aCERTIFIES THAT HE/SHE HAS PERSONALLY REVIEWED THIS CASE AND CONFIRMED OR\u000a\u000aCORRECTED THE DIAGNOSIS.\u000a\u000a\u000a\u000a\u000a\u000aCLINICAL HISTORY\u000a\u000aFAINT CALCIFICATION, LEFT BREAST.  ? BENIGN.\u000a\u000a\u000a\u000aSPECIMENS SUBMITTED:\u000a\u000aA: BREAST CORE BIOPSY, LEFT\u000a\u000a\u000a\u000a
p530
ag148
aa(lp531
VFINAL DIAGNOSIS\u000a\u000aCERTIFIES THAT HE/SHE HAS PERSONALLY REVIEWED THIS CASE AND CONFIRMED OR\u000a\u000aCORRECTED THE DIAGNOSIS.\u000a\u000a\u000a\u000a\u000a\u000aCLINICAL HISTORY\u000a\u000aFAINT CALCIFICATION, LEFT BREAST.  ? BENIGN.\u000a\u000a\u000a\u000aSPECIMENS SUBMITTED:\u000a\u000aA: BREAST CORE BIOPSY, LEFT\u000a\u000a\u000a\u000a
p532
ag148
aa(lp533
VFINAL DIAGNOSIS\u000a\u000aCERTIFIES THAT HE/SHE HAS PERSONALLY REVIEWED THIS CASE AND CONFIRMED OR\u000a\u000aCORRECTED THE DIAGNOSIS.\u000a\u000a\u000a\u000a\u000a\u000aCLINICAL HISTORY\u000a\u000aHYPOECHOIC LEFT BREAST MASS.  ? FIBROADENOMA VS MALIGNANCY VS APOCRINE\u000a\u000aMETAPLASIA.\u000a\u000a\u000a\u000aSPECIMENS SUBMITTED:\u000a\u000aA: BREAST CORE BIOPSY, LEFT\u000a\u000a\u000a\u000a
p534
ag148
aa(lp535
VFINAL DIAGNOSIS\u000a\u000aCERTIFIES THAT HE/SHE HAS PERSONALLY REVIEWED THIS CASE AND CONFIRMED OR\u000a\u000aCORRECTED THE DIAGNOSIS.\u000a\u000a\u000a\u000a\u000a\u000aCLINICAL HISTORY\u000a\u000aHYPOECHOIC LEFT BREAST MASS.  ? FIBROADENOMA VS MALIGNANCY VS APOCRINE\u000a\u000aMETAPLASIA.\u000a\u000a\u000a\u000aSPECIMENS SUBMITTED:\u000a\u000aA: BREAST CORE BIOPSY, LEFT\u000a\u000a\u000a\u000a
p536
ag148
aa(lp537
VFINAL DIAGNOSIS\u000a\u000aCERTIFIES THAT HE/SHE HAS PERSONALLY REVIEWED THIS CASE AND CONFIRMED OR\u000a\u000aCORRECTED THE DIAGNOSIS.\u000a\u000a\u000a\u000a\u000a\u000aCLINICAL HISTORY\u000a\u000aINDETERMINATE CALCIFICATIONS RIGHT BREAST.\u000a\u000a\u000a\u000aSPECIMENS SUBMITTED:\u000a\u000aA: BREAST CORE BIOPSY, RIGHT MID UPPER\u000a\u000a\u000a\u000a
p538
ag148
aa(lp539
VFINAL DIAGNOSIS\u000a\u000aCERTIFIES THAT HE/SHE HAS PERSONALLY REVIEWED THIS CASE AND CONFIRMED OR\u000a\u000aCORRECTED THE DIAGNOSIS.\u000a\u000a\u000a\u000a\u000a\u000aCLINICAL HISTORY\u000a\u000aINDETERMINATE FAINT RIGHT UPPER OUTER CALCIFICATIONS. TARGETED CALCIFICATIONS\u000a\u000aARE PRESENT IN THE SPECIMEN.\u000a\u000a\u000a\u000aSPECIMENS SUBMITTED:\u000a\u000aA: BREAST CORE BIOPSY, RIGHT\u000a\u000a\u000a\u000a
p540
ag148
aa(lp541
VFINAL DIAGNOSIS\u000a\u000aCERTIFIES THAT HE/SHE HAS PERSONALLY REVIEWED THIS CASE AND CONFIRMED OR\u000a\u000aCORRECTED THE DIAGNOSIS.\u000a\u000a\u000a\u000a\u000a\u000aCLINICAL HISTORY\u000a\u000aINDETERMINATE FAINT RIGHT UPPER OUTER CALCIFICATIONS. TARGETED CALCIFICATIONS\u000a\u000aARE PRESENT IN THE SPECIMEN.\u000a\u000a\u000a\u000aSPECIMENS SUBMITTED:\u000a\u000aA: BREAST CORE BIOPSY, RIGHT\u000a\u000a\u000a\u000a
p542
ag148
aa(lp543
VFINAL DIAGNOSIS\u000a\u000aCERTIFIES THAT HE/SHE HAS PERSONALLY REVIEWED THIS CASE AND CONFIRMED OR\u000a\u000aCORRECTED THE DIAGNOSIS.\u000a\u000a\u000a\u000a\u000a\u000aCLINICAL HISTORY\u000a\u000aLEFT BREAST ARCHITECTURAL DISTORTION\u000a\u000a\u000a\u000aSPECIMENS SUBMITTED:\u000a\u000aA: LEFT BREAST, ULTRASOUND GUIDED CORE BIOPSY (S15-3978; 6/24/2015)\u000a\u000a\u000a\u000aSLIDE-BLOCK DESCRIPTION:\u000a\u000aCONSULT MATERIALS RECEIVED FROM LAWRENCE GENERAL HOSPITAL, LAWRENCE, MA\u000a\u000a\u000a\u000aA. LEFT BREAST, ULTRASOUND GUIDED CORE BIOPSY (S15-3978; 6/24/2015):\u000a\u000aSTAINED SLIDES: 10      UNSTAINED SLIDES: 0     BLOCKS: 0\u000a\u000a\u000a\u000a\u000a\u000a
p544
ag148
aa(lp545
VFINAL DIAGNOSIS\u000a\u000aCERTIFIES THAT HE/SHE HAS PERSONALLY REVIEWED THIS CASE AND CONFIRMED OR\u000a\u000aCORRECTED THE DIAGNOSIS.\u000a\u000a\u000a\u000a\u000a\u000aCLINICAL HISTORY\u000a\u000aLEFT BREAST CALCIFICATIONS INNER UPPER QUADRANT.  ? DCIS, FCC, SCLEROSING\u000a\u000aADENOSIS.\u000a\u000a\u000a\u000aSPECIMENS SUBMITTED:\u000a\u000aA: BREAST CORE BIOPSY, LEFT UPPER INNER QUADRANT\u000a\u000a\u000a\u000a
p546
ag148
aa(lp547
VFINAL DIAGNOSIS\u000a\u000aCERTIFIES THAT HE/SHE HAS PERSONALLY REVIEWED THIS CASE AND CONFIRMED OR\u000a\u000aCORRECTED THE DIAGNOSIS.\u000a\u000a\u000a\u000a\u000a\u000aCLINICAL HISTORY\u000a\u000aLEFT BREAST ENHANCING OVAL MASS - ? IDC VS LYMPH NODE.\u000a\u000a\u000a\u000aSPECIMENS SUBMITTED:\u000a\u000aA: BREAST CORE BIOPSY, LEFT\u000a\u000a\u000a\u000a
p548
ag148
aa(lp549
VFINAL DIAGNOSIS\u000a\u000aCERTIFIES THAT HE/SHE HAS PERSONALLY REVIEWED THIS CASE AND CONFIRMED OR\u000a\u000aCORRECTED THE DIAGNOSIS.\u000a\u000a\u000a\u000a\u000a\u000aCLINICAL HISTORY\u000a\u000aLEFT BREAST IRREGULAR HYPOECHOIC AREA, INDETERMINATE. HX OF CONTRALATERAL LCIS\u000a\u000a\u000a\u000aSPECIMENS SUBMITTED:\u000a\u000aA: BREAST CORE BIOPSY, LEFT\u000a\u000a\u000a\u000a
p550
ag148
aa(lp551
VFINAL DIAGNOSIS\u000a\u000aCERTIFIES THAT HE/SHE HAS PERSONALLY REVIEWED THIS CASE AND CONFIRMED OR\u000a\u000aCORRECTED THE DIAGNOSIS.\u000a\u000a\u000a\u000a\u000a\u000aCLINICAL HISTORY\u000a\u000aLEFT BREAST MASS AND RIGHT BREAST ENHANCEMENT ON MRI\u000a\u000a\u000a\u000aSPECIMENS SUBMITTED:\u000a\u000aA: BREAST CORE BIOPSY, LEFT (S14-11120; 03/28/2014)\u000a\u000aB: BREAST CORE BIOPSY, RIGHT (S14-11683; 04/02/2014)\u000a\u000a\u000a\u000aSLIDE-BLOCK DESCRIPTION:\u000a\u000aCONSULT MATERIALS RECEIVED FROM DARTMOUTH-HITCHCOCK MEDICAL CENTER, LEBANON, NH\u000a\u000a\u000a\u000aA. BREAST CORE BIOPSY, LEFT, MASS (S14-11120; 03/28/2014):\u000a\u000aSTAINED SLIDES: 4      UNSTAINED SLIDES: 0     BLOCKS: 0\u000a\u000a\u000a\u000aB. BREAST CORE BIOPSY, RIGHT (S14-11683; 04/02/2014):\u000a\u000aSTAINED SLIDES: 16      UNSTAINED SLIDES: 0     BLOCKS: 0\u000a\u000a\u000a\u000a\u000a\u000a
p552
ag148
aa(lp553
VFINAL DIAGNOSIS\u000a\u000aCERTIFIES THAT HE/SHE HAS PERSONALLY REVIEWED THIS CASE AND CONFIRMED OR\u000a\u000aCORRECTED THE DIAGNOSIS.\u000a\u000a\u000a\u000a\u000a\u000aCLINICAL HISTORY\u000a\u000aLEFT BREAST MASS AT 9:00, 1CM FROM NIPPLE. HISTORY OF RIGHT BREAST INVASIVE\u000a\u000aDUCTAL CANCER 2012. ON TAMOXIFEN.\u000a\u000a\u000a\u000aSPECIMENS SUBMITTED:\u000a\u000aA: BREAST CORE BIOPSY, LEFT BREAST MASS 9:00, 1 CM FROM NIPPLE\u000a\u000a\u000a\u000a
p554
ag148
aa(lp555
VFINAL DIAGNOSIS\u000a\u000aCERTIFIES THAT HE/SHE HAS PERSONALLY REVIEWED THIS CASE AND CONFIRMED OR\u000a\u000aCORRECTED THE DIAGNOSIS.\u000a\u000a\u000a\u000a\u000a\u000aCLINICAL HISTORY\u000a\u000aMAMMOGRAPHIC ABNORMALITIES IN THE LEFT AND RIGHT BREAST\u000a\u000a\u000a\u000aSPECIMENS SUBMITTED:\u000a\u000aA: BREAST CORE BIOPSY, LEFT, "12 O'CLOCK"\u000a\u000aB: BREAST CORE BIOPSY, RIGHT, "10 O'CLOCK"\u000a\u000a\u000a\u000a
p556
ag148
aa(lp557
VFINAL DIAGNOSIS\u000a\u000aCERTIFIES THAT HE/SHE HAS PERSONALLY REVIEWED THIS CASE AND CONFIRMED OR\u000a\u000aCORRECTED THE DIAGNOSIS.\u000a\u000a\u000a\u000a\u000a\u000aCLINICAL HISTORY\u000a\u000aMASS IN THE LEFT BREAST\u000a\u000a\u000a\u000aSPECIMENS SUBMITTED:\u000a\u000aA: BREAST CORE BIOPSY, LEFT\u000a\u000a\u000a\u000a
p558
ag148
aa(lp559
VFINAL DIAGNOSIS\u000a\u000aCERTIFIES THAT HE/SHE HAS PERSONALLY REVIEWED THIS CASE AND CONFIRMED OR\u000a\u000aCORRECTED THE DIAGNOSIS.\u000a\u000a\u000a\u000a\u000a\u000aCLINICAL HISTORY\u000a\u000aMASS IN THE LEFT BREAST\u000a\u000a\u000a\u000aSPECIMENS SUBMITTED:\u000a\u000aA: BREAST CORE BIOPSY, LEFT (S13-9391; 4/5/13)\u000a\u000a\u000a\u000aSLIDE-BLOCK DESCRIPTION:\u000a\u000aCONSULT MATERIALS RECEIVED FROM BAYSTATE HEALTH, SPRINGFIELD, MA\u000a\u000a\u000a\u000aA. BREAST EVIVA BIOPSY, LEFT (S13-9391; 4/5/13):\u000a\u000aSTAINED SLIDES: 5      UNSTAINED SLIDES: 0     BLOCKS: 0\u000a\u000a\u000a\u000a\u000a\u000a
p560
ag148
aa(lp561
VFINAL DIAGNOSIS\u000a\u000aCERTIFIES THAT HE/SHE HAS PERSONALLY REVIEWED THIS CASE AND CONFIRMED OR\u000a\u000aCORRECTED THE DIAGNOSIS.\u000a\u000a\u000a\u000a\u000a\u000aCLINICAL HISTORY\u000a\u000aMASS IN THE LEFT BREAST\u000a\u000a\u000a\u000aSPECIMENS SUBMITTED:\u000a\u000aA: BREAST CORE BIOPSY, LEFT, "8 O'CLOCK"\u000a\u000a\u000a\u000a
p562
ag148
aa(lp563
VFINAL DIAGNOSIS\u000a\u000aCERTIFIES THAT HE/SHE HAS PERSONALLY REVIEWED THIS CASE AND CONFIRMED OR\u000a\u000aCORRECTED THE DIAGNOSIS.\u000a\u000a\u000a\u000a\u000a\u000aCLINICAL HISTORY\u000a\u000aMASS IN THE LEFT BREAST\u000a\u000a\u000a\u000aSPECIMENS SUBMITTED:\u000a\u000aA: BREAST CORE BIOPSY, LEFT, CENTRAL\u000a\u000a\u000a\u000a
p564
ag148
aa(lp565
VFINAL DIAGNOSIS\u000a\u000aCERTIFIES THAT HE/SHE HAS PERSONALLY REVIEWED THIS CASE AND CONFIRMED OR\u000a\u000aCORRECTED THE DIAGNOSIS.\u000a\u000a\u000a\u000a\u000a\u000aCLINICAL HISTORY\u000a\u000aMASS IN THE LEFT BREAST\u000a\u000a\u000a\u000aSPECIMENS SUBMITTED:\u000a\u000aA: BREAST CORE BIOPSY, LEFT, CENTRAL\u000a\u000a\u000a\u000a
p566
ag148
aa(lp567
VFINAL DIAGNOSIS\u000a\u000aCERTIFIES THAT HE/SHE HAS PERSONALLY REVIEWED THIS CASE AND CONFIRMED OR\u000a\u000aCORRECTED THE DIAGNOSIS.\u000a\u000a\u000a\u000a\u000a\u000aCLINICAL HISTORY\u000a\u000aMASS IN THE RIGHT BREAST\u000a\u000a\u000a\u000aSPECIMENS SUBMITTED:\u000a\u000aA: BREAST CORE BIOPSY, RIGHT, "10 O'CLOCK", 5 CM FROM THE NIPPLE\u000a\u000a\u000a\u000a
p568
ag148
aa(lp569
VFINAL DIAGNOSIS\u000a\u000aCERTIFIES THAT HE/SHE HAS PERSONALLY REVIEWED THIS CASE AND CONFIRMED OR\u000a\u000aCORRECTED THE DIAGNOSIS.\u000a\u000a\u000a\u000a\u000a\u000aCLINICAL HISTORY\u000a\u000aMASS RIGHT BREAST UPPER OUTER QUADRANT.\u000a\u000a\u000a\u000aSPECIMENS SUBMITTED:\u000a\u000aA: BREAST CORE BIOPSY, RIGHT\u000a\u000a\u000a\u000a
p570
ag148
aa(lp571
VFINAL DIAGNOSIS\u000a\u000aCERTIFIES THAT HE/SHE HAS PERSONALLY REVIEWED THIS CASE AND CONFIRMED OR\u000a\u000aCORRECTED THE DIAGNOSIS.\u000a\u000a\u000a\u000a\u000a\u000aCLINICAL HISTORY\u000a\u000aNEW CALCIFICATIONS - INDETERMINATE. TARGETED CALCIFICATIONS IN SPECIMEN.\u000a\u000a\u000a\u000aSPECIMENS SUBMITTED:\u000a\u000aA: BREAST CORE BIOPSY, LEFT\u000a\u000a\u000a\u000a
p572
ag148
aa(lp573
VFINAL DIAGNOSIS\u000a\u000aCERTIFIES THAT HE/SHE HAS PERSONALLY REVIEWED THIS CASE AND CONFIRMED OR\u000a\u000aCORRECTED THE DIAGNOSIS.\u000a\u000a\u000a\u000a\u000a\u000aCLINICAL HISTORY\u000a\u000aNEW CALCIFICATIONS - INDETERMINATE. TARGETED CALCIFICATIONS IN SPECIMEN.\u000a\u000a\u000a\u000aSPECIMENS SUBMITTED:\u000a\u000aA: BREAST CORE BIOPSY, LEFT\u000a\u000a\u000a\u000a
p574
ag148
aa(lp575
VFINAL DIAGNOSIS\u000a\u000aCERTIFIES THAT HE/SHE HAS PERSONALLY REVIEWED THIS CASE AND CONFIRMED OR\u000a\u000aCORRECTED THE DIAGNOSIS.\u000a\u000a\u000a\u000a\u000a\u000aCLINICAL HISTORY\u000a\u000aNONE PROVIDED\u000a\u000a\u000a\u000aSPECIMENS SUBMITTED:\u000a\u000aA: BREAST, STEREOTACTIC CORE BIOPSY, TISSUE WITH CALCIUM, RIGHT (S09-5723-A;\u000a\u000a8/10/09)\u000a\u000aB: BREAST, STEREOTACTIC CORE BIOPSY, TISSUE WITHOUT CALCIUM, RIGHT (S09-5723-B;\u000a\u000a8/10/09)\u000a\u000aC: BREAST MASS, RIGHT (S09-6385; 9/4/09)\u000a\u000aD: BREAST, STEREOTACTIC CORE BIOPSY, TISSUE WITH CALCIUM, RIGHT (S12-2006-A;\u000a\u000a3/27/12)\u000a\u000aE: BREAST, STEREOTACTIC CORE BIOPSY, TISSUE WITHOUT CALCIFICATION, RIGHT\u000a\u000a(S12-2006-B; 3/27/12)\u000a\u000a\u000a\u000aSLIDE-BLOCK DESCRIPTION:\u000a\u000aCONSULT MATERIALS RECEIVED FROM LAWRENCE GENERAL HOSPITAL, LAWRENCE, MA  01842.\u000a\u000a\u000a\u000aA. BREAST, STEREOTACTIC CORE BIOPSY, TISSUE WITH CALCIUM, RIGHT (S09-5723-A;\u000a\u000a8/10/09):\u000a\u000aSTAINED SLIDES: 3      UNSTAINED SLIDES: 0     BLOCKS: 0\u000a\u000a\u000a\u000aB. BREAST, STEREOTACTIC CORE BIOPSY, TISSUE WITHOUT CALCIUM, RIGHT (S09-5723-B;\u000a\u000a8/10/09):\u000a\u000aSTAINED SLIDES: 3      UNSTAINED SLIDES: 0     BLOCKS: 0\u000a\u000a\u000a\u000aC. BREAST MASS, RIGHT (S09-6385; 9/4/09):\u000a\u000aSTAINED SLIDES: 14      UNSTAINED SLIDES: 0     BLOCKS: 0\u000a\u000a\u000a\u000aD. BREAST, STEREOTACTIC CORE BIOPSY, TISSUE WITH CALCIUM, RIGHT (S12-2006-A;\u000a\u000a3/27/12):\u000a\u000aSTAINED SLIDES: 3      UNSTAINED SLIDES: 0     BLOCKS: 0\u000a\u000a\u000a\u000aE. BREAST, STEREOTACTIC CORE BIOPSY, TISSUE WITHOUT CALCIFICATION, RIGHT\u000a\u000a(S12-2006-B; 3/27/12):\u000a\u000aSTAINED SLIDES: 3     UNSTAINED SLIDES: 0     BLOCKS: 0\u000a\u000a\u000a\u000a\u000a\u000a\u000a\u000a
p576
ag148
aa(lp577
VFINAL DIAGNOSIS\u000a\u000aCERTIFIES THAT HE/SHE HAS PERSONALLY REVIEWED THIS CASE AND CONFIRMED OR\u000a\u000aCORRECTED THE DIAGNOSIS.\u000a\u000a\u000a\u000a\u000a\u000aCLINICAL HISTORY\u000a\u000aNONE PROVIDED\u000a\u000a\u000a\u000aSPECIMENS SUBMITTED:\u000a\u000aA: RIGHT BREAST CORE BIOPSY W/CALCS (S14-7760 A1; 4/17/2014)\u000a\u000aB: RIGHT BREAST CORE BIOPSY W/O CALCS (S14-7760 B1; 4/17/2014)\u000a\u000a\u000a\u000aSLIDE-BLOCK DESCRIPTION:\u000a\u000aCONSULT MATERIALS RECEIVED FROM NSMC, SALEM, MA\u000a\u000a\u000a\u000aA. RIGHT BREAST CORE BIOPSY W/CALCS (S14-7760 A1; 4/17/2014):\u000a\u000aSTAINED SLIDES: 7      UNSTAINED SLIDES: 0     BLOCKS: 0\u000a\u000a\u000a\u000aB. RIGHT BREAST CORE BIOPSY W/O CALCS (S14-7760 B1; 4/17/2014):\u000a\u000aSTAINED SLIDES: 3      UNSTAINED SLIDES: 0     BLOCKS: 0\u000a\u000a\u000a\u000a\u000a\u000a
p578
ag148
aa(lp579
VFINAL DIAGNOSIS\u000a\u000aCERTIFIES THAT HE/SHE HAS PERSONALLY REVIEWED THIS CASE AND CONFIRMED OR\u000a\u000aCORRECTED THE DIAGNOSIS.\u000a\u000a\u000a\u000a\u000a\u000aCLINICAL HISTORY\u000a\u000aNONE PROVIDED\u000a\u000a\u000a\u000aSPECIMENS SUBMITTED:\u000a\u000aA: RIGHT BREAST CORE BIOPSY W/CALCS (S14-7760 A1; 4/17/2014)\u000a\u000aB: RIGHT BREAST CORE BIOPSY W/O CALCS (S14-7760 B1; 4/17/2014)\u000a\u000a\u000a\u000aSLIDE-BLOCK DESCRIPTION:\u000a\u000aCONSULT MATERIALS RECEIVED FROM NSMC, SALEM, MA\u000a\u000a\u000a\u000aA. RIGHT BREAST CORE BIOPSY W/CALCS (S14-7760 A1; 4/17/2014):\u000a\u000aSTAINED SLIDES: 7      UNSTAINED SLIDES: 0     BLOCKS: 0\u000a\u000a\u000a\u000aB. RIGHT BREAST CORE BIOPSY W/O CALCS (S14-7760 B1; 4/17/2014):\u000a\u000aSTAINED SLIDES: 3      UNSTAINED SLIDES: 0     BLOCKS: 0\u000a\u000a\u000a\u000a\u000a\u000a
p580
ag148
aa(lp581
VFINAL DIAGNOSIS\u000a\u000aCERTIFIES THAT HE/SHE HAS PERSONALLY REVIEWED THIS CASE AND CONFIRMED OR\u000a\u000aCORRECTED THE DIAGNOSIS.\u000a\u000a\u000a\u000a\u000a\u000aCLINICAL HISTORY\u000a\u000aPATIENT WITH INDETERMINANT CALCIFICATIONS IN THE RIGHT BREAST. X-RAYED\u000a\u000aCALCIFICATIONS ARE IN THE CASSETTES\u000a\u000a\u000a\u000aSPECIMENS SUBMITTED:\u000a\u000aA: BREAST CORE BIOPSY, RIGHT\u000a\u000a\u000a\u000a
p582
ag148
aa(lp583
VFINAL DIAGNOSIS\u000a\u000aCERTIFIES THAT HE/SHE HAS PERSONALLY REVIEWED THIS CASE AND CONFIRMED OR\u000a\u000aCORRECTED THE DIAGNOSIS.\u000a\u000a\u000a\u000a\u000a\u000aCLINICAL HISTORY\u000a\u000aPER OUTSIDE REPORT: IRREGULAR MASS CENTRAL LATERAL LEFT BREAST.\u000a\u000a\u000a\u000aSPECIMENS SUBMITTED:\u000a\u000aA: BREAST, CORE BIOPSY, LEFT, STEREOTACTICALLY GUIDED (DENSITY) (FS-15-D08328\u000a\u000aA1-A5; 10/6/2015)\u000a\u000aB: BREAST, CORE BIOPSY, LEFT, STEREOTACTICALLY GUIDED WITH CALCIFICATIONS (LOQ)\u000a\u000a(FS-15-D08328 B1, B2; 10/6/2015)\u000a\u000aC: BREAST, CORE BIOPSY, LEFT, STEREOTACTICALLY GUIDED (LOQ) (FS-15-D08328 C1,\u000a\u000aC2; 10/6/2015)\u000a\u000a\u000a\u000aSLIDE-BLOCK DESCRIPTION:\u000a\u000aCONSULT MATERIALS RECEIVED FROM BRIGHAM AND WOMEN'S -FAULKNER HOSPITAL, BOSTON,\u000a\u000aMA\u000a\u000a\u000a\u000aA. BREAST, CORE BIOPSY, LEFT, STEREOTACTICALLY GUIDED (DENSITY) (FS-15-D08328\u000a\u000aA1-A5; 10/6/2015):\u000a\u000aSTAINED SLIDES: 5      UNSTAINED SLIDES: 0     BLOCKS: 0\u000a\u000a\u000a\u000aB. BREAST, CORE BIOPSY, LEFT, STEREOTACTICALLY GUIDED WITH CALCIFICATIONS (LOQ)\u000a\u000a(FS-15-D08328 B1, B2; 10/6/2015):\u000a\u000aSTAINED SLIDES: 2      UNSTAINED SLIDES: 0     BLOCKS: 0\u000a\u000a\u000a\u000aC. BREAST, CORE BIOPSY, LEFT, STEREOTACTICALLY GUIDED (LOQ) (FS-15-D08328 C1,\u000a\u000aC2; 10/6/2015):\u000a\u000aSTAINED SLIDES: 2      UNSTAINED SLIDES: 0     BLOCKS: 0\u000a\u000a\u000a\u000a\u000a\u000a
p584
ag148
aa(lp585
VFINAL DIAGNOSIS\u000a\u000aCERTIFIES THAT HE/SHE HAS PERSONALLY REVIEWED THIS CASE AND CONFIRMED OR\u000a\u000aCORRECTED THE DIAGNOSIS.\u000a\u000a\u000a\u000a\u000a\u000aCLINICAL HISTORY\u000a\u000aPT. WITH INDETERMINANT CALCIFICATIONS IN THE LEFT BREAST.\u000a\u000a\u000a\u000aSPECIMENS SUBMITTED:\u000a\u000aA: BREAST CORE BIOPSY, LEFT\u000a\u000a\u000a\u000a
p586
ag148
aa(lp587
VFINAL DIAGNOSIS\u000a\u000aCERTIFIES THAT HE/SHE HAS PERSONALLY REVIEWED THIS CASE AND CONFIRMED OR\u000a\u000aCORRECTED THE DIAGNOSIS.\u000a\u000a\u000a\u000a\u000a\u000aCLINICAL HISTORY\u000a\u000aREVIEW OUTSIDE SLIDES.\u000a\u000a\u000a\u000aSPECIMENS SUBMITTED:\u000a\u000aA: STEREOTACTIC BIOPSIES OF LEFT BREAST MICROCALCIFICATIONS AT 6 O'CLOCK MID\u000a\u000aDEPTH (NS15-1453-A; 5/19/15)\u000a\u000a\u000a\u000aSLIDE-BLOCK DESCRIPTION:\u000a\u000aCONSULT MATERIALS RECEIVED FROM NEWPORT HOSPITAL, NEWPORT, RI 02840\u000a\u000a\u000a\u000aA. STEREOTACTIC BIOPSIES OF LEFT BREAST MICROCALCIFICATIONS AT 6 O'CLOCK MID\u000a\u000aDEPTH (NS15-1453-A; 5/19/15):\u000a\u000aSTAINED SLIDES: 7      UNSTAINED SLIDES: 0     BLOCKS: 1\u000a\u000a\u000a\u000a\u000a\u000a
p588
ag148
aa(lp589
VFINAL DIAGNOSIS\u000a\u000aCERTIFIES THAT HE/SHE HAS PERSONALLY REVIEWED THIS CASE AND CONFIRMED OR\u000a\u000aCORRECTED THE DIAGNOSIS.\u000a\u000a\u000a\u000a\u000a\u000aCLINICAL HISTORY\u000a\u000aS/P STEREOTACTIC BIOPSY OF LEFT BREAST CALCIFICATIONS, ?DCIS VS FCC VS OTHER.\u000a\u000aX-RAYED CALCIFICATIONS ARE IN THE CASSETTE\u000a\u000a\u000a\u000aSPECIMENS SUBMITTED:\u000a\u000aA: BREAST CORE BIOPSY, LEFT\u000a\u000a\u000a\u000a
p590
ag148
aa(lp591
VFINAL DIAGNOSIS\u000a\u000aCERTIFIES THAT HE/SHE HAS PERSONALLY REVIEWED THIS CASE AND CONFIRMED OR\u000a\u000aCORRECTED THE DIAGNOSIS.\u000a\u000a\u000a\u000a\u000a\u000aCLINICAL HISTORY\u000a\u000aS/P STEREOTACTIC BIOPSY OF LEFT BREAST CALCIFICATIONS, ?DCIS VS FCC VS OTHER.\u000a\u000aX-RAYED CALCIFICATIONS ARE IN THE CASSETTE\u000a\u000a\u000a\u000aSPECIMENS SUBMITTED:\u000a\u000aA: BREAST CORE BIOPSY, LEFT\u000a\u000a\u000a\u000a
p592
ag148
aa(lp593
VFINAL DIAGNOSIS\u000a\u000aCERTIFIES THAT HE/SHE HAS PERSONALLY REVIEWED THIS CASE AND CONFIRMED OR\u000a\u000aCORRECTED THE DIAGNOSIS.\u000a\u000a\u000a\u000a\u000a\u000aCLINICAL HISTORY\u000a\u000aSECOND OPINION FOR DUCTAL HYPERPLASIA. PATIENT WILL SEE DR. HUGHES ON MAY 11.\u000a\u000a\u000a\u000aSPECIMENS SUBMITTED:\u000a\u000aA: LEFT BREAST, MASS, 10:00, COIL CLIP, CORE BIOPSY [15:S008865- 1A-1C;\u000a\u000a04/01/2015]\u000a\u000a\u000a\u000aSLIDE-BLOCK DESCRIPTION:\u000a\u000aCONSULT MATERIALS RECEIVED FROM UMASS MEMORIAL MEDICAL CENTER, WORCESTER, MA.\u000a\u000a\u000a\u000aA. LEFT BREAST, MASS, 10:00, COIL CLIP, CORE BIOPSY [15:S008865- 1A-1C;\u000a\u000a04/01/2015]:\u000a\u000aSTAINED SLIDES: 12      UNSTAINED SLIDES: 0     BLOCKS: 0\u000a\u000a\u000a\u000a\u000a\u000a
p594
ag148
aa(lp595
VFINAL DIAGNOSIS\u000a\u000aCERTIFIES THAT HE/SHE HAS PERSONALLY REVIEWED THIS CASE AND CONFIRMED OR\u000a\u000aCORRECTED THE DIAGNOSIS.\u000a\u000a\u000a\u000a\u000a\u000aCLINICAL HISTORY\u000a\u000aSPECIMEN A - LEFT BREAST LOWER OUTER QUADRANT ? DCIS VS FIBROCYSTIC CHANGES\u000a\u000a(TARGETED CALC'S IN THE X-RAYED SPECIMEN).\u000a\u000a\u000a\u000aSPECIMENS SUBMITTED:\u000a\u000aA: BREAST CORE BIOPSY, LEFT\u000a\u000a\u000a\u000a
p596
ag148
aa(lp597
VFINAL DIAGNOSIS\u000a\u000aCERTIFIES THAT HE/SHE HAS PERSONALLY REVIEWED THIS CASE AND CONFIRMED OR\u000a\u000aCORRECTED THE DIAGNOSIS.\u000a\u000a\u000a\u000a\u000a\u000aCLINICAL HISTORY\u000a\u000aSTEREOTACTIC BIOPSY FOR LEFT BREAST CALCIFICATIONS; CALCIFICATIONS ARE PRESENT\u000a\u000aIN THE RADIOGRAPHED SPECIMEN.\u000a\u000a\u000a\u000aSPECIMENS SUBMITTED:\u000a\u000aA: BREAST CORE BIOPSY, LEFT\u000a\u000a\u000a\u000a
p598
ag148
aa(lp599
VFINAL DIAGNOSIS\u000a\u000aCERTIFIES THAT HE/SHE HAS PERSONALLY REVIEWED THIS CASE AND CONFIRMED OR\u000a\u000aCORRECTED THE DIAGNOSIS.\u000a\u000a\u000a\u000a\u000a\u000aPROCEDURES/ADDENDA\u000a\u000a\u000a\u000aADDENDUM\u000a\u000aORDERED DATE: 10/9/2014\u000a\u000a\u000a\u000aTHIS ADDENDUM IS ISSUED TO REPORT THE RESULTS OF IMMUNOHISTOCHEMICAL STAINS FOR\u000a\u000aMYOSIN AND P63, WHICH SHOW PRESERVATION OF MYOEPITHELIAL CELLS.  THE DIAGNOSIS\u000a\u000aREMAINS UNCHANGED.\u000a\u000a\u000a\u000a\u000a\u000a***ELECTRONICALLY SIGNED OUT BY:  MONICA C CHUNG MD ON 10/9/2014 08:08***\u000a\u000a\u000a\u000aCLINICAL HISTORY\u000a\u000a54 Y/O FEMALE WITH RIGHT BREAST CALCIFICATIONS.  ? INVOLUTING FIBROADENOMA VS.\u000a\u000aDCIS.\u000a\u000a\u000a\u000aSPECIMENS SUBMITTED:\u000a\u000aA: BREAST CORE BIOPSY, RIGHT\u000a\u000a\u000a\u000a
p600
ag148
aa(lp601
VFINAL DIAGNOSIS\u000a\u000aCERTIFIES THAT HE/SHE HAS PERSONALLY REVIEWED THIS CASE AND CONFIRMED OR\u000a\u000aCORRECTED THE DIAGNOSIS.\u000a\u000a\u000a\u000a\u000a\u000aPROCEDURES/ADDENDA\u000a\u000a\u000a\u000aADDENDUM\u000a\u000aORDERED DATE: 8/6/2014\u000a\u000a\u000a\u000aAN IMMUNOSTAIN FOR MYOSIN WAS ALSO EVALUATED AND SUPPORTS THE DIAGNOSIS.\u000a\u000a\u000a\u000a\u000a\u000a***ELECTRONICALLY SIGNED OUT BY:  ELENA F. BRACHTEL MD ON 8/6/2014 17:10***\u000a\u000a\u000a\u000aCLINICAL HISTORY\u000a\u000aPERI-AREOLAR SOLID MASS, SUSPICIOUS.\u000a\u000a\u000a\u000aSPECIMENS SUBMITTED:\u000a\u000aA: BREAST CORE BIOPSY, RIGHT\u000a\u000a\u000a\u000a
p602
ag148
aa(lp603
VFINAL DIAGNOSIS\u000a\u000aCERTIFIES THAT HE/SHE HAS PERSONALLY REVIEWED THIS CASE AND CONFIRMED OR\u000a\u000aCORRECTED THE DIAGNOSIS.\u000a\u000a\u000a\u000aCLINICAL HISTORY\u000a\u000a25 YEAR OLD FEMALE WITH A HYPOECHOIC MASS IN THE RIGHT BREAST WITH ASSOCIATED\u000a\u000aCALCIFICATIONS. ?CANCER VERSUS DCIS VERSUS FCC VERSUS FIBROSIS\u000a\u000a\u000a\u000aSPECIMENS SUBMITTED:\u000a\u000aA: BREAST CORE BIOPSY, RIGHT\u000a\u000a\u000a\u000a
p604
ag148
aa(lp605
VFINAL DIAGNOSIS\u000a\u000aCERTIFIES THAT HE/SHE HAS PERSONALLY REVIEWED THIS CASE AND CONFIRMED OR\u000a\u000aCORRECTED THE DIAGNOSIS.\u000a\u000a\u000a\u000aCLINICAL HISTORY\u000a\u000a26 Y/O FEMALE WHO IS BRCA1 POSITIVE PRESENTS FOR TOMO-GUIDED CORE BIOPSY OF\u000a\u000aARCHITECTURAL DISTORTION AND CALCIFICATIONS IN THE UPPER INNER QUADRANT OF THE\u000a\u000aRIGHT BREAST.\u000a\u000a\u000a\u000aSPECIMENS SUBMITTED:\u000a\u000aA: BREAST CORE BIOPSY, RIGHT ARCHITECTURAL DISTORTION UPPER INNER QUADRANT\u000a\u000aB: BREAST CORE BIOPSY, RIGHT CALCIFICATIONS UPPER INNER QUADRANT\u000a\u000a\u000a\u000a
p606
ag148
aa(lp607
VFINAL DIAGNOSIS\u000a\u000aCERTIFIES THAT HE/SHE HAS PERSONALLY REVIEWED THIS CASE AND CONFIRMED OR\u000a\u000aCORRECTED THE DIAGNOSIS.\u000a\u000a\u000a\u000aCLINICAL HISTORY\u000a\u000a37 YEAR OLD FEMALE-S/P MRI GUIDED CORE BIOPSY OF ENHANCING ARCHITECTURAL\u000a\u000aDISTORTION - CENTRAL/UOQ - LEFT BREAST-? IDC VS RADIAL SCAR; +H/O LEFT BREAST\u000a\u000aSURGICAL EXCISION AT MGH 9/24/12 - RADIAL SCAR WITH FCC.\u000a\u000a\u000a\u000aSPECIMENS SUBMITTED:\u000a\u000aA: BREAST CORE BIOPSY, LEFT\u000a\u000a\u000a\u000a
p608
ag148
aa(lp609
VFINAL DIAGNOSIS\u000a\u000aCERTIFIES THAT HE/SHE HAS PERSONALLY REVIEWED THIS CASE AND CONFIRMED OR\u000a\u000aCORRECTED THE DIAGNOSIS.\u000a\u000a\u000a\u000aCLINICAL HISTORY\u000a\u000a38 YEAR OLD FEMALE WITH CALCIFICATIONS IN THE LEFT BREAST.  ? FCC/CALCIUM\u000a\u000aOXALATE.\u000a\u000a\u000a\u000aSPECIMENS SUBMITTED:\u000a\u000aA: BREAST CORE BIOPSY, LEFT\u000a\u000a\u000a\u000a
p610
ag148
aa(lp611
VFINAL DIAGNOSIS\u000a\u000aCERTIFIES THAT HE/SHE HAS PERSONALLY REVIEWED THIS CASE AND CONFIRMED OR\u000a\u000aCORRECTED THE DIAGNOSIS.\u000a\u000a\u000a\u000aCLINICAL HISTORY\u000a\u000a40 YEAR OLD FEMALE PRESENTS FOR ULTRASOUND GUIDED CORE BIOPSY OF 2.9 CM\u000a\u000aHYPOECHOIC MASS IN THE RIGHT BREAST 10:00 5 CM FROM NIPPLE. PRIOR H/O LEFT\u000a\u000aBREAST BIOPSY IN 2013 REVEALING HAMARTOMA. DIFFERENTIAL INCLUDES FIBROADENOMA VS\u000a\u000aHAMARTOMA. IDC LESS LIKELY.\u000a\u000a\u000a\u000aSPECIMENS SUBMITTED:\u000a\u000aA: BREAST CORE BIOPSY, RIGHT 10:00, 5 CM FROM NIPPLE\u000a\u000a\u000a\u000a
p612
ag148
aa(lp613
VFINAL DIAGNOSIS\u000a\u000aCERTIFIES THAT HE/SHE HAS PERSONALLY REVIEWED THIS CASE AND CONFIRMED OR\u000a\u000aCORRECTED THE DIAGNOSIS.\u000a\u000a\u000a\u000aCLINICAL HISTORY\u000a\u000a40 YEAR OLD FEMALE WITH LEFT BREAST ARCHITECTURAL DISTORTION AND CALCIFICATIONS,\u000a\u000aQUESTION BREAST CANCER VS RADIAL SCAR\u000a\u000a\u000a\u000aSPECIMENS SUBMITTED:\u000a\u000aA: BREAST CORE BIOPSY, LEFT\u000a\u000a\u000a\u000a
p614
ag148
aa(lp615
VFINAL DIAGNOSIS\u000a\u000aCERTIFIES THAT HE/SHE HAS PERSONALLY REVIEWED THIS CASE AND CONFIRMED OR\u000a\u000aCORRECTED THE DIAGNOSIS.\u000a\u000a\u000a\u000aCLINICAL HISTORY\u000a\u000a43 YEAR OLD FEMALE WITH LEFT BREAST MASS. QUESTION BREAST CANCER VERSUS RADIAL\u000a\u000aSCAR?\u000a\u000a\u000a\u000aSPECIMENS SUBMITTED:\u000a\u000aA: BREAST CORE BIOPSY, LEFT 2:00, 6 CM FROM NIPPLE\u000a\u000a\u000a\u000a
p616
ag148
aa(lp617
VFINAL DIAGNOSIS\u000a\u000aCERTIFIES THAT HE/SHE HAS PERSONALLY REVIEWED THIS CASE AND CONFIRMED OR\u000a\u000aCORRECTED THE DIAGNOSIS.\u000a\u000a\u000a\u000aCLINICAL HISTORY\u000a\u000a43-Y/O-F WITH SMALL LOBULATED PALPABLE MASS IN RIGHT BREAST AT 10 O'CLOCK.\u000a\u000a\u000a\u000aSPECIMENS SUBMITTED:\u000a\u000aA: BREAST CORE BIOPSY, RIGHT 10:00\u000a\u000a\u000a\u000a
p618
ag148
aa(lp619
VFINAL DIAGNOSIS\u000a\u000aCERTIFIES THAT HE/SHE HAS PERSONALLY REVIEWED THIS CASE AND CONFIRMED OR\u000a\u000aCORRECTED THE DIAGNOSIS.\u000a\u000a\u000a\u000aCLINICAL HISTORY\u000a\u000a45 Y/O FEMALE WITH ARCHITECTURAL DISTORTION IN THE UPPER OUTER LEFT BREAST. THIS\u000a\u000aIS A SECOND BIOPSY AT MID DEPTH, POSTERIOR AS WELL AS SLIGHTLY INFERIOR AND\u000a\u000aMEDIAL TO THE PRIOR BIOPSY. MARKED WITH BUCKLE CLIP.\u000a\u000a\u000a\u000aSPECIMENS SUBMITTED:\u000a\u000aA: BREAST CORE SECOND BIOPSY, LEFT ARCHITECTURAL DISTORTION UPPER OUTER QUADRANT\u000a\u000aMID DEPTH\u000a\u000a\u000a\u000a
p620
ag148
aa(lp621
VFINAL DIAGNOSIS\u000a\u000aCERTIFIES THAT HE/SHE HAS PERSONALLY REVIEWED THIS CASE AND CONFIRMED OR\u000a\u000aCORRECTED THE DIAGNOSIS.\u000a\u000a\u000a\u000aCLINICAL HISTORY\u000a\u000a45 YEAR OLD FEMALE WITH GROUP OF INDETERMINATE CALCIFICATIONS IN HER RIGHT UPPER\u000a\u000aOUTER BREAST. TARGETED CALCIFICATIONS IN THE ORANGE CASSETTE. ? DCIS,\u000a\u000aFIBROCYSTIC CHANGE, VASCULAR.\u000a\u000a\u000a\u000aSPECIMENS SUBMITTED:\u000a\u000aA: BREAST CORE BIOPSY, RIGHT\u000a\u000a\u000a\u000a
p622
ag148
aa(lp623
VFINAL DIAGNOSIS\u000a\u000aCERTIFIES THAT HE/SHE HAS PERSONALLY REVIEWED THIS CASE AND CONFIRMED OR\u000a\u000aCORRECTED THE DIAGNOSIS.\u000a\u000a\u000a\u000aCLINICAL HISTORY\u000a\u000a46 F WITH INDETERMINATE RIGHT BREAST CALCIFICATIONS. ? DCIS OR FIBROADENOMA.\u000a\u000a\u000a\u000aSPECIMENS SUBMITTED:\u000a\u000aA: BREAST CORE BIOPSY, RIGHT\u000a\u000a\u000a\u000a
p624
ag148
aa(lp625
VFINAL DIAGNOSIS\u000a\u000aCERTIFIES THAT HE/SHE HAS PERSONALLY REVIEWED THIS CASE AND CONFIRMED OR\u000a\u000aCORRECTED THE DIAGNOSIS.\u000a\u000a\u000a\u000aCLINICAL HISTORY\u000a\u000a46 Y/O FEMALE WITH INDETERMINATE RIGHT BREAST CALCIFICATIONS.\u000a\u000a\u000a\u000aSPECIMENS SUBMITTED:\u000a\u000aA: BREAST CORE BIOPSY, RIGHT\u000a\u000a\u000a\u000a
p626
ag148
aa(lp627
VFINAL DIAGNOSIS\u000a\u000aCERTIFIES THAT HE/SHE HAS PERSONALLY REVIEWED THIS CASE AND CONFIRMED OR\u000a\u000aCORRECTED THE DIAGNOSIS.\u000a\u000a\u000a\u000aCLINICAL HISTORY\u000a\u000a46 Y/O FEMALE WITH INDETERMINATE RIGHT BREAST CALCIFICATIONS.\u000a\u000a\u000a\u000aSPECIMENS SUBMITTED:\u000a\u000aA: BREAST CORE BIOPSY, RIGHT\u000a\u000a\u000a\u000a
p628
ag148
aa(lp629
VFINAL DIAGNOSIS\u000a\u000aCERTIFIES THAT HE/SHE HAS PERSONALLY REVIEWED THIS CASE AND CONFIRMED OR\u000a\u000aCORRECTED THE DIAGNOSIS.\u000a\u000a\u000a\u000aCLINICAL HISTORY\u000a\u000a46 YEAR OLD FEMALE WITH CALCIFICATIONS IN THE RIGHT BREAST.  PATIENT HAS A\u000a\u000aHISTORY OF ADH IN THE RIGHT BREAST, STATUS POST EXCISION.  ? ADH VS DCIS;\u000a\u000aX-RAYED CALCIFICATIONS ARE IN THE CASSETTE.\u000a\u000a\u000a\u000aSPECIMENS SUBMITTED:\u000a\u000aA: BREAST CORE BIOPSY, RIGHT\u000a\u000a\u000a\u000a
p630
ag148
aa(lp631
VFINAL DIAGNOSIS\u000a\u000aCERTIFIES THAT HE/SHE HAS PERSONALLY REVIEWED THIS CASE AND CONFIRMED OR\u000a\u000aCORRECTED THE DIAGNOSIS.\u000a\u000a\u000a\u000aCLINICAL HISTORY\u000a\u000a46 YEAR OLD FEMALE WITH INDETERMINATE CALCIFICATIONS IN THE LEFT UPPER INNER\u000a\u000aBREAST.  QUESTION MILK OF CALCIUM, DCIS.\u000a\u000a\u000a\u000aSPECIMENS SUBMITTED:\u000a\u000aA: BREAST CORE BIOPSY, LEFT\u000a\u000a\u000a\u000a
p632
ag148
aa(lp633
VFINAL DIAGNOSIS\u000a\u000aCERTIFIES THAT HE/SHE HAS PERSONALLY REVIEWED THIS CASE AND CONFIRMED OR\u000a\u000aCORRECTED THE DIAGNOSIS.\u000a\u000a\u000a\u000aCLINICAL HISTORY\u000a\u000a49-YEAR-OLD FEMALE WITH NEW GROUP OF CALCIFICATIONS IN HER LEFT UPPER BREAST\u000a\u000a?DCIS.\u000a\u000a\u000a\u000aSPECIMENS SUBMITTED:\u000a\u000aA: BREAST CORE BIOPSY, LEFT\u000a\u000a\u000a\u000a
p634
ag148
aa(lp635
VFINAL DIAGNOSIS\u000a\u000aCERTIFIES THAT HE/SHE HAS PERSONALLY REVIEWED THIS CASE AND CONFIRMED OR\u000a\u000aCORRECTED THE DIAGNOSIS.\u000a\u000a\u000a\u000aCLINICAL HISTORY\u000a\u000a51-Y/O F WITH FOCAL ASYMMETRY IN THE LEFT BREAST, DIFFICULT TO ASCERTAIN ON\u000a\u000aULTRASOUND, UNABLE TO ASPIRATE.  QUESTION POSSIBLE COMPLICATED CYST.\u000a\u000a\u000a\u000aSPECIMENS SUBMITTED:\u000a\u000aA: BREAST CORE BIOPSY, LEFT\u000a\u000a\u000a\u000a
p636
ag148
aa(lp637
VFINAL DIAGNOSIS\u000a\u000aCERTIFIES THAT HE/SHE HAS PERSONALLY REVIEWED THIS CASE AND CONFIRMED OR\u000a\u000aCORRECTED THE DIAGNOSIS.\u000a\u000a\u000a\u000aCLINICAL HISTORY\u000a\u000a52-YEAR-OLD FEMALE PRESENTS FOR STEREOTACTIC GUIDED BIOPSY OF CALCIFICATIONS IN\u000a\u000aTHE UPPER OUTER QUADRANT OF THE RIGHT BREAST.  DIFFERENTIAL INCLUDES DCIS VS.\u000a\u000aFIBROCYSTIC CHANGE.\u000a\u000a\u000a\u000aSPECIMENS SUBMITTED:\u000a\u000aA: BREAST CORE BIOPSY, RIGHT CALCIFICATIONS UPPER OUTER QUADRANT\u000a\u000a\u000a\u000a
p638
ag148
aa(lp639
VFINAL DIAGNOSIS\u000a\u000aCERTIFIES THAT HE/SHE HAS PERSONALLY REVIEWED THIS CASE AND CONFIRMED OR\u000a\u000aCORRECTED THE DIAGNOSIS.\u000a\u000a\u000a\u000aCLINICAL HISTORY\u000a\u000a54 YEAR OLD FEMALE S/P STEREOTACTIC BIOPSY OF 2 GROUPS OF INDETERMINATE\u000a\u000aCALCIFICATIONS\u000a\u000aA) GROUPED CALCIFICATIONS IN THE MEDIAL LEFT BREAST\u000a\u000aB) GROUPED CALCIFICATIONS IN THE LATERAL LEFT BREAST\u000a\u000a\u000a\u000aSPECIMENS SUBMITTED:\u000a\u000aA: BREAST CORE BIOPSY, LEFT MEDIAL\u000a\u000aB: BREAST CORE BIOPSY, LEFT LATERAL\u000a\u000a\u000a\u000a
p640
ag148
aa(lp641
VFINAL DIAGNOSIS\u000a\u000aCERTIFIES THAT HE/SHE HAS PERSONALLY REVIEWED THIS CASE AND CONFIRMED OR\u000a\u000aCORRECTED THE DIAGNOSIS.\u000a\u000a\u000a\u000aCLINICAL HISTORY\u000a\u000a54 YEAR OLD FEMALE S/P STEREOTACTIC BIOPSY OF 2 GROUPS OF INDETERMINATE\u000a\u000aCALCIFICATIONS\u000a\u000aA) GROUPED CALCIFICATIONS IN THE MEDIAL LEFT BREAST\u000a\u000aB) GROUPED CALCIFICATIONS IN THE LATERAL LEFT BREAST\u000a\u000a\u000a\u000aSPECIMENS SUBMITTED:\u000a\u000aA: BREAST CORE BIOPSY, LEFT MEDIAL\u000a\u000aB: BREAST CORE BIOPSY, LEFT LATERAL\u000a\u000a\u000a\u000a
p642
ag148
aa(lp643
VFINAL DIAGNOSIS\u000a\u000aCERTIFIES THAT HE/SHE HAS PERSONALLY REVIEWED THIS CASE AND CONFIRMED OR\u000a\u000aCORRECTED THE DIAGNOSIS.\u000a\u000a\u000a\u000aCLINICAL HISTORY\u000a\u000a55 YEAR OLD FEMALE STATUS POST ULTRASOUND GUIDED BIOPSY OF HYPOECHOIC MASS IN\u000a\u000aTHE LEFT BREAST AT 4:00, 5 CM FN; 6 X 7 X 4 MM. ? MALIGNANCY.\u000a\u000a\u000a\u000aSPECIMENS SUBMITTED:\u000a\u000aA: BREAST CORE BIOPSY, LEFT 4:00\u000a\u000a\u000a\u000a
p644
ag148
aa(lp645
VFINAL DIAGNOSIS\u000a\u000aCERTIFIES THAT HE/SHE HAS PERSONALLY REVIEWED THIS CASE AND CONFIRMED OR\u000a\u000aCORRECTED THE DIAGNOSIS.\u000a\u000a\u000a\u000aCLINICAL HISTORY\u000a\u000a55 YEAR OLD FEMALE WITH CALCIFICATIONS IN THE LEFT BREAST: FCC VS DCIS; X-RAYED\u000a\u000aCALCIFICATIONS ARE IN THE CASSETTE.\u000a\u000a\u000a\u000aSPECIMENS SUBMITTED:\u000a\u000aA: BREAST CORE BIOPSY, LEFT\u000a\u000a\u000a\u000a
p646
ag148
aa(lp647
VFINAL DIAGNOSIS\u000a\u000aCERTIFIES THAT HE/SHE HAS PERSONALLY REVIEWED THIS CASE AND CONFIRMED OR\u000a\u000aCORRECTED THE DIAGNOSIS.\u000a\u000a\u000a\u000aCLINICAL HISTORY\u000a\u000a56 YEAR OLD FEMALE WITH INDETERMINATE GROUPED CALCIFICATIONS IN THE UPPER OUTER\u000a\u000aQUADRANT OF RIGHT BREAST.\u000a\u000a\u000a\u000aSPECIMENS SUBMITTED:\u000a\u000aA: BREAST CORE BIOPSY, RIGHT\u000a\u000a\u000a\u000a
p648
ag148
aa(lp649
VFINAL DIAGNOSIS\u000a\u000aCERTIFIES THAT HE/SHE HAS PERSONALLY REVIEWED THIS CASE AND CONFIRMED OR\u000a\u000aCORRECTED THE DIAGNOSIS.\u000a\u000a\u000a\u000aCLINICAL HISTORY\u000a\u000a56 YEAR OLD FEMALE WITH RIGHT BREAST MASS ? FIBROADENOMA VS APOCRINE METAPLASIA.\u000a\u000a\u000a\u000aSPECIMENS SUBMITTED:\u000a\u000aA: BREAST CORE BIOPSY, RIGHT\u000a\u000a\u000a\u000a
p650
ag148
aa(lp651
VFINAL DIAGNOSIS\u000a\u000aCERTIFIES THAT HE/SHE HAS PERSONALLY REVIEWED THIS CASE AND CONFIRMED OR\u000a\u000aCORRECTED THE DIAGNOSIS.\u000a\u000a\u000a\u000aCLINICAL HISTORY\u000a\u000a56 YO FEMALE WITH ARCHITECTURAL DISTORTION AND ASSOCIATED MICROCALCIFICATIONS IN\u000a\u000aTHE UPPER OUTER QUADRANT OF THE RIGHT BREAST.\u000a\u000a\u000a\u000aSPECIMENS SUBMITTED:\u000a\u000aA: BREAST CORE BIOPSY, RIGHT UPPER OUTER QUADRANT\u000a\u000a\u000a\u000a
p652
ag148
aa(lp653
VFINAL DIAGNOSIS\u000a\u000aCERTIFIES THAT HE/SHE HAS PERSONALLY REVIEWED THIS CASE AND CONFIRMED OR\u000a\u000aCORRECTED THE DIAGNOSIS.\u000a\u000a\u000a\u000aCLINICAL HISTORY\u000a\u000a56 YO FEMALE WITH ARCHITECTURAL DISTORTION AND ASSOCIATED MICROCALCIFICATIONS IN\u000a\u000aTHE UPPER OUTER QUADRANT OF THE RIGHT BREAST.\u000a\u000a\u000a\u000aSPECIMENS SUBMITTED:\u000a\u000aA: BREAST CORE BIOPSY, RIGHT UPPER OUTER QUADRANT\u000a\u000a\u000a\u000a
p654
ag148
aa.