(dp0
V74703
p1
S'L'
p2
sV65094
p3
g2
sV55345
p4
g2
sV110559
p5
S'R'
p6
sV25251
p7
g2
sV77168
p8
g6
sV28998
p9
g6
sV35788
p10
g2
sV55290
p11
g2
sV92099
p12
g6
sV89173
p13
g2
sV66777
p14
g2
sV66770
p15
g6
sV107398
p16
g2
sV110483
p17
g2
sV93784
p18
g2
sV16673
p19
S'B'
p20
sV100385
p21
g2
sV107863
p22
g20
sV6152
p23
g6
sV73394
p24
g6
sV23842
p25
g2
sV13606
p26
g6
sV56125
p27
g6
sV98648
p28
g6
sV64703
p29
g6
sV46485
p30
g2
sV46480
p31
g6
sV56830
p32
g2
sV52397
p33
g20
sV43052
p34
g2
sV75837
p35
g2
sV96797
p36
g2
sV64679
p37
g6
sV52466
p38
g6
sV101944
p39
g6
sV65504
p40
g2
sV7863
p41
g6
sV56902
p42
g6
sV21614
p43
g6
sV22903
p44
g6
sV56909
p45
g2
sV41903
p46
g2
sV9411
p47
g2
sV46660
p48
g6
sV45667
p49
g20
sV105530
p50
g2
sV33472
p51
g6
sV46869
p52
g6
sV9328
p53
g2
sV101833
p54
g6
sV9327
p55
g6
sV36531
p56
g6
sV90313
p57
g6
sV48237
p58
g2
sV112134
p59
g2
sV53511
p60
g2
sV9749
p61
g6
sV1627
p62
g2
sV99420
p63
g2
sV106624
p64
g2
sV58187
p65
g2
sV54399
p66
g2
sV87965
p67
g6
sV102718
p68
g2
sV112220
p69
g6
sV83295
p70
g6
sV33507
p71
g2
sV112044
p72
g2
sV33505
p73
g6
sV68911
p74
g6
sV86698
p75
g2
sV107864
p76
g2
sV29964
p77
g6
sV3341
p78
g6
sV68353
p79
g2
sV37950
p80
g6
sV68608
p81
g2
sV54082
p82
g6
sV18630
p83
g2
sV83612
p84
g6
sV1753
p85
g2
sV78714
p86
g2
sV23509
p87
g2
sV109440
p88
g6
sV110830
p89
g2
sV87613
p90
g2
sV50707
p91
g20
sV110838
p92
g2
sV58529
p93
g2
sV66185
p94
g2
sV47507
p95
g6
sV1570
p96
g2
sV8381
p97
g6
sV4387
p98
g2
sV1371
p99
g2
sV110545
p100
g6
sV110540
p101
g2
sV110014
p102
g6
sV73472
p103
g20
sV111548
p104
g6
sV10887
p105
g6
sV5991
p106
g6
sV89141
p107
g6
sV50674
p108
g6
sV91514
p109
g6
sV92648
p110
g2
sV91841
p111
g2
sV65268
p112
g6
sV43195
p113
g2
sV74001
p114
g6
sV101154
p115
g2
sV2302
p116
g2
sV65867
p117
g20
sV25618
p118
g2
sV100715
p119
g6
sV64846
p120
g6
sV87599
p121
g6
sV70452
p122
g2
sV21116
p123
g20
sV104493
p124
g2
sV98454
p125
g2
sV75287
p126
g2
sV46499
p127
g6
sV69349
p128
g6
sV56829
p129
g2
sV13533
p130
g6
sV22703
p131
g6
sV16718
p132
g6
sV112290
p133
g2
sV81617
p134
g2
sV90819
p135
g6
sV74136
p136
g2
sV43683
p137
g6
sV26383
p138
g2
sV82524
p139
g6
sV20733
p140
g6
sV56757
p141
g2
sV18590
p142
g6
sV49773
p143
g6
sV13449
p144
g2
sV85421
p145
g6
sV101446
p146
g2
sV69071
p147
g2
sV52034
p148
g6
sV42338
p149
g6
sV101448
p150
g2
sV40859
p151
g2
sV33448
p152
g2
sV36947
p153
g2
sV54560
p154
g6
sV45873
p155
g2
sV51517
p156
g2
sV48550
p157
g2
sV22802
p158
g2
sV75063
p159
g2
sV99507
p160
g6
sV112301
p161
g20
sV60651
p162
g2
sV6214
p163
g6
sV36835
p164
g2
sV80560
p165
g6
sV10713
p166
g6
sV85519
p167
g2
sV102367
p168
g6
sV112121
p169
g6
sV14094
p170
g2
sV57888
p171
g6
sV80965
p172
g6
sV58199
p173
g6
sV1616
p174
g6
sV96895
p175
g2
sV49799
p176
g6
sV41590
p177
g2
sV112053
p178
g2
sV18714
p179
g6
sV108583
p180
g2
sV68906
p181
g20
sV106730
p182
g6
sV58442
p183
g6
sV14275
p184
g2
sV62095
p185
g6
sV76761
p186
g2
sV38748
p187
g6
sV44436
p188
g2
sV18629
p189
g6
sV29802
p190
g6
sV112439
p191
g6
sV39342
p192
g2
sV109458
p193
g6
sV39345
p194
g6
sV11111
p195
g6
sV39589
p196
g6
sV26785
p197
g2
sV29977
p198
g6
sV67206
p199
g2
sV96653
p200
g2
sV29111
p201
g2
sV31573
p202
g6
sV76182
p203
g2
sV50405
p204
g6
sV66083
p205
g2
sV64174
p206
g2
sV72390
p207
g2
sV95205
p208
g6
sV107064
p209
g2
sV87746
p210
g6
sV35145
p211
g6
sV28228
p212
g6
sV28730
p213
g2
sV23263
p214
g2
sV22644
p215
g6
sV87908
p216
g2
sV4288
p217
g6
sV32813
p218
g2
sV74583
p219
g6
sV74852
p220
g2
sV81517
p221
g6
sV77748
p222
g2
sV389
p223
g2
sV110376
p224
g2
sV77039
p225
g2
sV23869
p226
g2
sV43456
p227
g6
sV101140
p228
g6
sV73914
p229
g2
sV60006
p230
g6
sV36225
p231
g2
sV100925
p232
g6
sV64581
p233
g2
sV64587
p234
g6
sV81606
p235
g2
sV12033
p236
g2
sV82887
p237
g6
sV82557
p238
g2
sV20723
p239
g6
sV39906
p240
g2
sV79830
p241
g6
sV49091
p242
g6
sV6351
p243
g6
sV45680
p244
g6
sV97590
p245
g6
sV49140
p246
g20
sV62408
p247
g2
sV21256
p248
g6
sV46680
p249
g2
sV101850
p250
g6
sV99531
p251
g2
sV46689
p252
g2
sV94178
p253
g6
sV60463
p254
g2
sV112336
p255
g2
sV53752
p256
g2
sV58270
p257
g6
sV14860
p258
g2
sV18546
p259
g6
sV18542
p260
g2
sV29344
p261
g2
sV57891
p262
g2
sV21414
p263
g2
sV1977
p264
g20
sV68022
p265
g2
sV70734
p266
g6
sV44223
p267
g6
sV45084
p268
g20
sV83450
p269
g2
sV58852
p270
g2
sV53401
p271
g6
sV64801
p272
g6
sV91040
p273
g6
sV94769
p274
g6
sV37191
p275
g6
sV83638
p276
g6
sV30763
p277
g6
sV23070
p278
g6
sV67304
p279
g2
sV111140
p280
g2
sV92403
p281
g6
sV111816
p282
g2
sV107111
p283
g6
sV3034
p284
g6
sV103171
p285
g6
sV86726
p286
g2
sV14467
p287
g6
sV59494
p288
g6
sV58540
p289
g6
sV76175
p290
g2
sV31741
p291
g6
sV88544
p292
g2
sV72272
p293
g6
sV31565
p294
g6
sV50180
p295
g2
sV34536
p296
g6
sV108207
p297
g20
sV103779
p298
g2
sV29633
p299
g6
sV35133
p300
g2
sV72871
p301
g2
sV73879
p302
g6
sV28722
p303
g2
sV66568
p304
g2
sV39486
p305
g6
sV77137
p306
g6
sV32482
p307
g6
sV110567
p308
g6
sV50988
p309
g6
sV111762
p310
g2
sV26542
p311
g2
sV6413
p312
g6
sV93597
p313
g6
sV101732
p314
g6
sV37558
p315
g2
sV82430
p316
g6
sV109243
p317
g6
sV32802
p318
g6
sV74932
p319
g2
sV61322
p320
g2
sV50509
p321
g2
sV31365
p322
g6
sV91538
p323
g6
sV22035
p324
g2
sV32665
p325
g2
sV61257
p326
g6
sV12730
p327
g6
sV69509
p328
g2
sV10993
p329
g2
sV84814
p330
g6
sV27129
p331
g6
sV55311
p332
g6
sV88276
p333
g2
sV60491
p334
g20
sV60492
p335
g2
sV80764
p336
g2
sV110214
p337
g2
sV42798
p338
g2
sV42793
p339
g2
sV93372
p340
g6
sV57648
p341
g2
sV97696
p342
g6
sV82548
p343
g6
sV43022
p344
g2
sV81167
p345
g2
sV75863
p346
g6
sV81380
p347
g6
sV40532
p348
g2
sV63073
p349
g6
sV88174
p350
g6
sV105378
p351
g6
sV105298
p352
g6
sV45415
p353
g6
sV70037
p354
g2
sV61818
p355
g2
sV42312
p356
g6
sV2724
p357
g2
sV10171
p358
g6
sV45636
p359
g6
sV64313
p360
g6
sV20663
p361
g6
sV63412
p362
g2
sV105615
p363
g2
sV90614
p364
g2
sV102342
p365
g2
sV33737
p366
g2
sV95183
p367
g2
sV49422
p368
g2
sV102987
p369
g6
sV90726
p370
g2
sV41378
p371
g2
sV108051
p372
g2
sV33550
p373
g2
sV109505
p374
g6
sV5463
p375
g6
sV80834
p376
g2
sV3339
p377
g2
sV14188
p378
g2
sV68637
p379
g6
sV15855
p380
g6
sV18393
p381
g2
sV68819
p382
g6
sV67317
p383
g6
sV59570
p384
g6
sV86712
p385
g2
sV39361
p386
g6
sV85841
p387
g6
sV111803
p388
g2
sV77901
p389
g2
sV58555
p390
g2
sV111022
p391
g2
sV8739
p392
g2
sV109651
p393
g6
sV23664
p394
g2
sV109658
p395
g2
sV72262
p396
g6
sV50192
p397
g2
sV67795
p398
g6
sV48929
p399
g2
sV26619
p400
g2
sV31487
p401
g6
sV78811
p402
g6
sV19119
p403
g6
sV96335
p404
g6
sV103583
p405
g6
sV27001
p406
g6
sV111486
p407
g20
sV28660
p408
g2
sV103348
p409
g2
sV74906
p410
g2
sV111769
p411
g6
sV100838
p412
g2
sV60315
p413
g2
sV46758
p414
g6
sV103839
p415
g2
sV16106
p416
g20
sV61244
p417
g6
sV86252
p418
g2
sV28862
p419
g6
sV88660
p420
g6
sV69688
p421
g2
sV25621
p422
g2
sV56475
p423
g6
sV100905
p424
g2
sV25151
p425
g2
sV57780
p426
g2
sV19938
p427
g2
sV88067
p428
g2
sV110229
p429
g2
sV28444
p430
g20
sV93368
p431
g2
sV64638
p432
g6
sV10834
p433
g6
sV51157
p434
g6
sV86877
p435
g2
sV20700
p436
g6
sV73178
p437
g6
sV19802
p438
g2
sV102978
p439
g6
sV65546
p440
g6
sV85472
p441
g2
sV85470
p442
g2
sV2538
p443
g2
sV26262
p444
g2
sV52776
p445
g2
sV107447
p446
g2
sV93811
p447
g6
sV53080
p448
g6
sV68133
p449
g2
sV52686
p450
g20
sV102832
p451
g6
sV933
p452
g6
sV6241
p453
g2
sV10745
p454
g2
sV5382
p455
g6
sV62681
p456
g2
sV84631
p457
g2
sV63536
p458
g6
sV83944
p459
g6
sV9703
p460
g2
sV112265
p461
g20
sV37426
p462
g6
sV13091
p463
g2
sV84527
p464
g2
sV76684
p465
g6
sV53425
p466
g2
sV5259
p467
g2
sV67143
p468
g6
sV104766
p469
g6
sV14194
p470
g2
sV798
p471
g6
sV37730
p472
g2
sV40926
p473
g6
sV78758
p474
g2
sV72077
p475
g2
sV11121
p476
g6
sV82314
p477
g2
sV28410
p478
g6
sV58562
p479
g6
sV86709
p480
g6
sV108463
p481
g2
sV85875
p482
g6
sV62112
p483
g2
sV65297
p484
g2
sV87652
p485
g6
sV18744
p486
g6
sV34998
p487
g6
sV37649
p488
g2
sV40858
p489
g2
sV34337
p490
g6
sV37870
p491
g2
sV89852
p492
g2
sV89854
p493
g2
sV35065
p494
g6
sV107052
p495
g20
sV85937
p496
g2
sV4340
p497
g6
sV31493
p498
g6
sV31497
p499
g2
sV50324
p500
g6
sV25986
p501
g6
sV83163
p502
g2
sV72322
p503
g6
sV77481
p504
g2
sV88988
p505
g6
sV51730
p506
g6
sV110695
p507
g6
sV48866
p508
g2
sV73611
p509
g2
sV50520
p510
g6
sV103335
p511
g2
sV110344
p512
g2
sV74048
p513
g6
sV35480
p514
g6
sV23836
p515
g2
sV23343
p516
g6
sV84838
p517
g6
sV22525
p518
g6
sV26295
p519
g2
sV27104
p520
g2
sV56460
p521
g6
sV64807
p522
g2
sV104238
p523
g6
sV64804
p524
g2
sV13898
p525
g6
sV50145
p526
g2
sV5803
p527
g2
sV92770
p528
g2
sV19745
p529
g6
sV35249
p530
g2
sV46188
p531
g6
sV73326
p532
g6
sV110232
p533
g2
sV92979
p534
g6
sV46058
p535
g6
sV97077
p536
g2
sV101064
p537
g2
sV65955
p538
g6
sV52210
p539
g2
sV21866
p540
g2
sV60259
p541
g2
sV63651
p542
g6
sV3652
p543
g6
sV61873
p544
g6
sV90926
p545
g6
sV64155
p546
g2
sV86282
p547
g6
sV90457
p548
g6
sV5063
p549
g2
sV62924
p550
g2
sV17790
p551
g2
sV21265
p552
g2
sV102602
p553
g6
sV90632
p554
g6
sV85008
p555
g6
sV6256
p556
g20
sV11808
p557
g6
sV85738
p558
g2
sV53233
p559
g2
sV20935
p560
g2
sV45985
p561
g2
sV42995
p562
g6
sV3277
p563
g2
sV1922
p564
g2
sV3471
p565
g6
sV78236
p566
g6
sV107580
p567
g6
sV36128
p568
g6
sV45341
p569
g2
sV80450
p570
g6
sV36906
p571
g6
sV11623
p572
g6
sV14231
p573
g6
sV68784
p574
g2
sV71412
p575
g6
sV33378
p576
g2
sV94756
p577
g2
sV9002
p578
g6
sV94753
p579
g2
sV3312
p580
g2
sV104906
p581
g2
sV20029
p582
g6
sV67159
p583
g2
sV30571
p584
g2
sV29737
p585
g6
sV29739
p586
g6
sV54789
p587
g2
sV34917
p588
g2
sV101690
p589
g2
sV72064
p590
g20
sV40590
p591
g6
sV76030
p592
g2
sV72991
p593
g2
sV58574
p594
g20
sV33975
p595
g2
sV48486
p596
g2
sV7155
p597
g2
sV87647
p598
g2
sV66330
p599
g6
sV108896
p600
g20
sV1033
p601
g6
sV66686
p602
g2
sV77326
p603
g2
sV23641
p604
g6
sV31020
p605
g6
sV107023
p606
g2
sV87706
p607
g6
sV87705
p608
g6
sV95084
p609
g6
sV50337
p610
g2
sV38129
p611
g6
sV72660
p612
g2
sV79363
p613
g2
sV20022
p614
g2
sV31449
p615
g6
sV73135
p616
g20
sV66590
p617
g2
sV111752
p618
g2
sV95885
p619
g2
sV109232
p620
g6
sV15302
p621
g6
sV38236
p622
g6
sV61467
p623
g2
sV92386
p624
g20
sV110405
p625
g2
sV74071
p626
g2
sV69538
p627
g6
sV82777
p628
g6
sV109067
p629
g6
sV24643
p630
g2
sV212
p631
g2
sV65361
p632
g2
sV55695
p633
g2
sV42560
p634
g6
sV97001
p635
g6
sV5905
p636
g6
sV96713
p637
g2
sV43589
p638
g2
sV49501
p639
g6
sS'#N/'
p640
g6
sV21076
p641
g2
sV74090
p642
g6
sV105774
p643
g6
sV105178
p644
g2
sV98408
p645
g6
sV104170
p646
g2
sV20614
p647
g2
sV101895
p648
g2
sV52795
p649
g6
sV99371
p650
g6
sV37532
p651
g6
sV70170
p652
g6
sV102512
p653
g20
sV2175
p654
g2
sV9544
p655
g20
sV53203
p656
g20
sV70318
p657
g2
sV5128
p658
g6
sV1936
p659
g6
sV96848
p660
g2
sV84293
p661
g6
sV106685
p662
g2
sV8899
p663
g2
sV36800
p664
g6
sV12320
p665
g2
sV85108
p666
g6
sV33140
p667
g2
sV54311
p668
g6
sV44551
p669
g6
sV33365
p670
g6
sV54315
p671
g2
sV41501
p672
g2
sV102022
p673
g6
sV26863
p674
g2
sV53448
p675
g20
sV107871
p676
g6
sV39616
p677
g6
sV34843
p678
g6
sV71559
p679
g6
sV40129
p680
g2
sV54229
p681
g2
sV78351
p682
g20
sV78572
p683
g6
sV71040
p684
g2
sV68682
p685
g2
sV41052
p686
g2
sV39536
p687
g2
sV78685
p688
g6
sV47878
p689
g2
sV40692
p690
g2
sV37864
p691
g6
sV5643
p692
g6
sV11078
p693
g2
sV107779
p694
g2
sV11070
p695
g6
sV106857
p696
g6
sV31451
p697
g2
sV13788
p698
g6
sV78824
p699
g2
sV82169
p700
g6
sV32849
p701
g2
sV103310
p702
g20
sV108339
p703
g6
sV100113
p704
g2
sV66108
p705
g20
sV92175
p706
g2
sV92172
p707
g2
sV78914
p708
g6
sV73011
p709
g2
sV101259
p710
g2
sV111430
p711
g2
sV35621
p712
g2
sV82299
p713
g6
sV101640
p714
g20
sV8093
p715
g6
sV96270
p716
g2
sV22765
p717
g2
sV80729
p718
g6
sV73308
p719
g2
sV88096
p720
g2
sV54605
p721
g2
sV31852
p722
g2
sV56248
p723
g2
sV65799
p724
g2
sV19657
p725
g2
sV100846
p726
g2
sV96011
p727
g2
sV52895
p728
g2
sV82613
p729
g2
sV43596
p730
g6
sV64518
p731
g2
sV17557
p732
g6
sV65774
p733
g2
sV90942
p734
g20
sV65779
p735
g2
sV111919
p736
g2
sV52097
p737
g6
sV93445
p738
g6
sV17313
p739
g2
sV46436
p740
g6
sV26257
p741
g6
sV26251
p742
g2
sV99569
p743
g6
sV5000
p744
g6
sV57571
p745
g2
sV45165
p746
g2
sV98219
p747
g2
sV58005
p748
g2
sV79364
p749
g2
sV98186
p750
g2
sV106327
p751
g6
sV64198
p752
g6
sV61921
p753
g2
sV61926
p754
g20
sV85026
p755
g6
sV70143
p756
g6
sV105303
p757
g2
sV49284
p758
g6
sV14030
p759
g2
sV20488
p760
g6
sV53219
p761
g6
sV53216
p762
g2
sV48391
p763
g2
sV1907
p764
g2
sV63295
p765
g2
sV36436
p766
g6
sV54679
p767
g2
sV41048
p768
g2
sV54260
p769
g6
sV9027
p770
g2
sV59756
p771
g6
sV99039
p772
g20
sV33283
p773
g6
sV108900
p774
g2
sV29245
p775
g6
sV95672
p776
g2
sV102654
p777
g6
sV18517
p778
g2
sV34277
p779
g2
sV83357
p780
g2
sV6896
p781
g2
sV33912
p782
g6
sV2943
p783
g2
sV2941
p784
g20
sV57801
p785
g2
sV76496
p786
g2
sV76492
p787
g2
sV37899
p788
g2
sV112030
p789
g6
sV39298
p790
g6
sV106533
p791
g20
sV92549
p792
g6
sV89687
p793
g6
sV24486
p794
g6
sV15966
p795
g6
sV72824
p796
g2
sV23751
p797
g6
sV103789
p798
g20
sV35706
p799
g2
sV27047
p800
g2
sV111730
p801
g2
sV107318
p802
g2
sV50008
p803
g2
sV15360
p804
g2
sV55055
p805
g6
sV67994
p806
g2
sV31514
p807
g2
sV50796
p808
g6
sV87988
p809
g20
sV65168
p810
g2
sV66713
p811
g2
sV100783
p812
g6
sV66487
p813
g6
sV66480
p814
g2
sV109100
p815
g6
sV38921
p816
g20
sV110269
p817
g2
sV64760
p818
g2
sV89314
p819
g2
sV112450
p820
g6
sV23974
p821
g2
sV43298
p822
g2
sV65900
p823
g6
sV52881
p824
g6
sV82335
p825
g2
sV63620
p826
g6
sV16892
p827
g2
sV16323
p828
g2
sV75322
p829
g2
sV60533
p830
g6
sV4542
p831
g6
sV42348
p832
g2
sV101432
p833
g2
sV2577
p834
g6
sV2575
p835
g2
sV17302
p836
g6
sV43905
p837
g2
sV10121
p838
g2
sV26221
p839
g2
sV69663
p840
g6
sV64433
p841
g2
sV4437
p842
g6
sV75745
p843
g6
sV63754
p844
g6
sV36733
p845
g20
sV97354
p846
g2
sV80266
p847
g6
sV54485
p848
g6
sV85562
p849
g2
sV85568
p850
g6
sV21307
p851
g6
sV63573
p852
g6
sV48384
p853
g2
sV38457
p854
g6
sV56969
p855
g6
sV106026
p856
g2
sV42657
p857
g6
sV53685
p858
g2
sV85165
p859
g6
sV112284
p860
g20
sV58610
p861
g6
sV62808
p862
g6
sV21540
p863
g2
sV24066
p864
g6
sV8926
p865
g2
sV18838
p866
g2
sV85761
p867
g2
sV18528
p868
g2
sV84366
p869
g2
sV18654
p870
g6
sV34266
p871
g6
sV71590
p872
g6
sV71
p873
g2
sV2974
p874
g2
sV91171
p875
g2
sV31727
p876
g2
sV71449
p877
g2
sV67057
p878
g2
sV4302
p879
g6
sV31293
p880
g6
sV4307
p881
g2
sV30055
p882
g2
sV40658
p883
g6
sV24492
p884
g6
sV15515
p885
g6
sV33838
p886
g2
sV34395
p887
g6
sV62023
p888
g20
sV29696
p889
g6
sV40258
p890
g6
sV28585
p891
g2
sV111705
p892
g2
sV73788
p893
g2
sV6445
p894
g6
sV109777
p895
g6
sV76260
p896
g2
sV79200
p897
g2
sV23165
p898
g6
sV79204
p899
g2
sV91605
p900
g2
sV7723
p901
g2
sV92487
p902
g6
sV50583
p903
g6
sV61436
p904
g6
sV111410
p905
g2
sV111416
p906
g2
sV86028
p907
g2
sV110778
p908
g6
sV12779
p909
g2
sV27787
p910
g2
sV87861
p911
g2
sV61540
p912
g2
sV35516
p913
g6
sV81108
p914
g6
sV69273
p915
g20
sV110385
p916
g2
sV22096
p917
g6
sV19671
p918
g6
sV56999
p919
g6
sV65598
p920
g20
sV21823
p921
g6
sV63614
p922
g2
sV75594
p923
g2
sV25039
p924
g6
sV90961
p925
g2
sV101138
p926
g6
sV56607
p927
g6
sV96109
p928
g20
sV11426
p929
g6
sV7290
p930
g2
sV10319
p931
g2
sV69120
p932
g2
sV57008
p933
g6
sV39865
p934
g2
sV17680
p935
g2
sV1869
p936
g6
sV49488
p937
g6
sV85596
p938
g2
sV69721
p939
g2
sV24811
p940
g2
sV101353
p941
g20
sV43621
p942
g6
sV63816
p943
g2
sV63813
p944
g2
sV106015
p945
g2
sV52610
p946
g6
sV64241
p947
g6
sV102252
p948
g6
sV85680
p949
g6
sV84779
p950
g2
sV57397
p951
g6
sV892
p952
g2
sV59736
p953
g6
sV27895
p954
g2
sV104947
p955
g6
sV104943
p956
g6
sV34818
p957
g6
sV96922
p958
g6
sV36677
p959
g6
sV95612
p960
g2
sV83260
p961
g6
sV20971
p962
g20
sV54274
p963
g20
sV11841
p964
g2
sV71078
p965
g6
sV44451
p966
g6
sV91165
p967
g6
sV17920
p968
g2
sV59648
p969
g2
sV48751
p970
g2
sV108742
p971
g2
sV71582
p972
g2
sV38696
p973
g6
sV47840
p974
g6
sV47843
p975
g6
sV44032
p976
g6
sV37612
p977
g6
sV8223
p978
g6
sV8224
p979
g6
sV83021
p980
g6
sV3136
p981
g2
sV14586
p982
g2
sV39479
p983
g6
sV106826
p984
g2
sV7607
p985
g6
sV95046
p986
g2
sV76074
p987
g6
sV15988
p988
g2
sV109908
p989
g6
sV108422
p990
g2
sV23578
p991
g6
sV5769
p992
g6
sV91584
p993
g2
sV44851
p994
g6
sV89796
p995
g2
sV72979
p996
g2
sV111620
p997
g6
sV28330
p998
g20
sV106480
p999
g6
sV3959
p1000
g2
sV74980
p1001
g20
sV3951
p1002
g2
sV88687
p1003
g6
sV11210
p1004
g6
sV89243
p1005
g2
sV89083
p1006
g6
sV32968
p1007
g2
sV15235
p1008
g2
sV100522
p1009
g2
sV15233
p1010
g2
sV61049
p1011
g2
sV105869
p1012
g6
sV95914
p1013
g2
sV101686
p1014
g2
sV107991
p1015
g6
sV98687
p1016
g6
sV31880
p1017
g2
sV101232
p1018
g6
sV105790
p1019
g6
sV82647
p1020
g2
sV11505
p1021
g2
sV110916
p1022
g20
sV33928
p1023
g2
sV69467
p1024
g6
sV50609
p1025
g2
sV82860
p1026
g6
sV75583
p1027
g2
sV16185
p1028
g6
sV88117
p1029
g20
sV52338
p1030
g6
sV55895
p1031
g2
sV93474
p1032
g2
sV52333
p1033
g2
sV69607
p1034
g6
sV96113
p1035
g2
sV21783
p1036
g2
sV16988
p1037
g2
sV60176
p1038
g6
sV60174
p1039
g2
sV91174
p1040
g2
sV52194
p1041
g6
sV57162
p1042
g6
sV52426
p1043
g2
sV69047
p1044
g2
sV86818
p1045
g2
sV49018
p1046
g6
sV26119
p1047
g2
sV53114
p1048
g6
sV80797
p1049
g6
sV36885
p1050
g2
sV97402
p1051
g2
sV90622
p1052
g6
sV107827
p1053
g2
sV102244
p1054
g6
sV94061
p1055
g2
sV102483
p1056
g2
sV10297
p1057
g6
sV53482
p1058
g2
sV46821
p1059
g6
sV49340
p1060
g2
sV53649
p1061
g6
sV11850
p1062
g2
sV112353
p1063
g2
sV8903
p1064
g6
sV90191
p1065
g2
sV14350
p1066
g2
sV30213
p1067
g20
sV30211
p1068
g6
sV97991
p1069
g6
sV59658
p1070
g2
sV54289
p1071
g6
sV2070
p1072
g6
sV30695
p1073
g6
sV40389
p1074
g6
sV18259
p1075
g6
sV30104
p1076
g2
sV62351
p1077
g2
sV108288
p1078
g2
sV85901
p1079
g6
sV103042
p1080
g6
sV3386
p1081
g2
sV5415
p1082
g2
sV47942
p1083
g2
sV61414
p1084
g6
sV83301
p1085
g2
sV88436
p1086
g6
sV108373
p1087
g6
sV16036
p1088
g2
sV26754
p1089
g2
sV86147
p1090
g2
sV61630
p1091
g6
sV111652
p1092
g2
sV63451
p1093
g2
sV91334
p1094
g2
sV109622
p1095
g6
sV67928
p1096
g2
sV69850
p1097
g20
sV50123
p1098
g2
sV50121
p1099
g20
sV51437
p1100
g20
sV19054
p1101
g2
sV35750
p1102
g6
sV39224
p1103
g6
sV79468
p1104
g2
sV73345
p1105
g2
sV61569
p1106
g2
sV35579
p1107
g2
sV35578
p1108
g2
sV88744
p1109
g2
sV111500
p1110
g6
sV26329
p1111
g2
sV100331
p1112
g2
sV86312
p1113
g2
sV11530
p1114
g2
sV81476
p1115
g2
sV110907
p1116
g2
sV82493
p1117
g6
sV69455
p1118
g2
sV60541
p1119
g2
sV60545
p1120
g2
sV98030
p1121
g6
sV32190
p1122
g2
sV74578
p1123
g2
sV12194
p1124
g6
sV86951
p1125
g6
sV11403
p1126
g6
sV91690
p1127
g2
sV104187
p1128
g6
sV104439
p1129
g20
sV55572
p1130
g6
sV19985
p1131
g6
sV93402
p1132
g6
sV97568
p1133
g6
sV46619
p1134
g6
sV23935
p1135
g6
sV60166
p1136
g6
sV13374
p1137
g2
sV42268
p1138
g6
sV42065
p1139
g6
sV64267
p1140
g2
sV5754
p1141
g2
sV9208
p1142
g6
sV101979
p1143
g20
sV20771
p1144
g6
sV21375
p1145
g2
sV54641
p1146
g6
sV60765
p1147
g6
sV45129
p1148
g6
sV4865
p1149
g2
sV44290
p1150
g6
sV71819
p1151
g6
sV14109
p1152
g2
sV53495
p1153
g6
sV53492
p1154
g2
sV26634
p1155
g6
sV53655
p1156
g6
sV10446
p1157
g2
sV3567
p1158
g6
sV84331
p1159
g6
sV112349
p1160
g2
sV54925
p1161
g6
sV14618
p1162
g2
sV59662
p1163
g2
sV44181
p1164
g2
sV108767
p1165
g2
sV87023
p1166
g6
sV1659
p1167
g2
sV33645
p1168
g2
sV68097
p1169
g6
sV44984
p1170
g2
sV30665
p1171
g2
sV59910
p1172
g2
sV6588
p1173
g2
sV33868
p1174
g6
sV104987
p1175
g2
sV106802
p1176
g6
sV83245
p1177
g2
sV109963
p1178
g6
sV41867
p1179
g6
sV29024
p1180
g6
sV83649
p1181
g2
sV35186
p1182
g2
sV44871
p1183
g20
sV91635
p1184
g6
sV103455
p1185
g6
sV39308
p1186
g2
sV47398
p1187
g2
sV110843
p1188
g6
sV23334
p1189
g6
sV8577
p1190
g2
sV5895
p1191
g6
sV89514
p1192
g20
sV11231
p1193
g6
sV107228
p1194
g2
sV24429
p1195
g2
sV91921
p1196
g2
sV28955
p1197
g6
sV50915
p1198
g6
sV79479
p1199
g6
sV19085
p1200
g6
sV109038
p1201
g6
sV96591
p1202
g6
sV51081
p1203
g2
sV65124
p1204
g2
sV98799
p1205
g6
sV74818
p1206
g2
sV22066
p1207
g6
sV84844
p1208
g2
sV11413
p1209
g6
sV31933
p1210
g6
sV12761
p1211
g6
sV105117
p1212
g2
sV6137
p1213
g2
sV77702
p1214
g2
sV105113
p1215
g2
sV100988
p1216
g6
sV55565
p1217
g6
sV93417
p1218
g6
sV63717
p1219
g2
sV46625
p1220
g6
sV13368
p1221
g2
sV79908
p1222
g6
sV13367
p1223
g2
sV90513
p1224
g2
sV90516
p1225
g2
sV85309
p1226
g6
sV42274
p1227
g2
sV17272
p1228
g6
sV2249
p1229
g6
sV101563
p1230
g6
sV63953
p1231
g20
sV97311
p1232
g2
sV104049
p1233
g6
sV93309
p1234
g6
sV105642
p1235
g20
sV9276
p1236
g2
sV62538
p1237
g2
sV5142
p1238
g6
sV20172
p1239
g2
sV60027
p1240
g2
sV4877
p1241
g6
sV4879
p1242
g2
sV56927
p1243
g20
sV94043
p1244
g6
sV53001
p1245
g6
sV63481
p1246
g2
sV12149
p1247
g6
sV80133
p1248
g6
sV85638
p1249
g6
sV46803
p1250
g6
sV9653
p1251
g2
sV87308
p1252
g6
sV20502
p1253
g2
sV46809
p1254
g6
sV60626
p1255
g2
sV38522
p1256
g2
sV63406
p1257
g2
sV95488
p1258
g6
sV8968
p1259
g6
sV2662
p1260
g6
sV75158
p1261
g6
sV105483
p1262
g2
sV71803
p1263
g6
sV112154
p1264
g6
sV48166
p1265
g2
sV26918
p1266
g2
sV14607
p1267
g2
sV86542
p1268
g2
sV99683
p1269
g6
sV83256
p1270
g2
sV107734
p1271
g6
sV84211
p1272
g6
sV76429
p1273
g6
sV8172
p1274
g6
sV47564
p1275
g20
sV18292
p1276
g6
sV33872
p1277
g2
sV68572
p1278
g2
sV109959
p1279
g2
sV47418
p1280
g20
sV38790
p1281
g2
sV34229
p1282
g6
sV79066
p1283
g2
sV47411
p1284
g6
sV67342
p1285
g2
sV89182
p1286
g2
sV53777
p1287
g2
sV40508
p1288
g2
sV92681
p1289
g6
sV50726
p1290
g6
sV111856
p1291
g2
sV61368
p1292
g2
sV109600
p1293
g2
sV23634
p1294
g6
sV95924
p1295
g2
sV110584
p1296
g6
sV61766
p1297
g6
sV27741
p1298
g2
sV100869
p1299
g6
sV96211
p1300
g6
sV28947
p1301
g2
sV103840
p1302
g6
sV88908
p1303
g6
sV24435
p1304
g2
sV55353
p1305
g6
sV22457
p1306
g2
sV32209
p1307
g2
sV16515
p1308
g6
sV16040
p1309
g2
sV35792
p1310
g2
sV43081
p1311
g6
sV92666
p1312
g6
sV92843
p1313
g6
sV22210
p1314
g2
sV93792
p1315
g2
sV82472
p1316
g2
sV103885
p1317
g2
sV61213
p1318
g6
sV19542
p1319
g2
sV98015
p1320
g6
sV61188
p1321
g2
sV81255
p1322
g2
sV27164
p1323
g6
sV104290
p1324
g2
sV17202
p1325
g6
sV16285
p1326
g6
sV106237
p1327
g2
sV97789
p1328
g6
sV32025
p1329
g6
sV99874
p1330
g6
sV104079
p1331
g2
sV97304
p1332
g2
sV52653
p1333
g20
sV46925
p1334
g2
sV105657
p1335
g6
sV52129
p1336
g20
sV64040
p1337
g2
sV84130
p1338
g6
sV65698
p1339
g6
sV64441
p1340
g20
sV57049
p1341
g6
sV75983
p1342
g6
sV85402
p1343
g6
sV20537
p1344
g2
sV45676
p1345
g2
sV18469
p1346
g6
sV44277
p1347
g2
sV85629
p1348
g2
sV58082
p1349
g6
sV9649
p1350
g2
sV42827
p1351
g6
sV22862
p1352
g2
sV95496
p1353
g2
sV90304
p1354
g2
sV80342
p1355
g2
sV105491
p1356
g6
sV32082
p1357
g2
sV108709
p1358
g6
sV112143
p1359
g2
sV48150
p1360
g2
sV34969
p1361
g2
sV80906
p1362
g6
sV98902
p1363
g6
sV95147
p1364
g2
sV76630
p1365
g6
sV84268
p1366
g6
sV45072
p1367
g6
sV54385
p1368
g2
sV78299
p1369
g6
sV86685
p1370
g20
sV27325
p1371
g2
sV15095
p1372
g2
sV76389
p1373
g2
sV14704
p1374
g2
sV44093
p1375
g6
sV41757
p1376
g2
sV62275
p1377
g2
sV27563
p1378
g6
sV68364
p1379
g2
sV1745
p1380
g6
sV1746
p1381
g6
sV67132
p1382
g6
sV109946
p1383
g2
sV83662
p1384
g6
sV109721
p1385
g6
sV4247
p1386
g6
sV45148
p1387
g6
sV111192
p1388
g6
sV11171
p1389
g2
sV58513
p1390
g2
sV91659
p1391
g6
sV97942
p1392
g6
sV87303
p1393
g2
sV111660
p1394
g2
sV92784
p1395
g2
sV82045
p1396
g2
sV103727
p1397
g6
sV12809
p1398
g6
sV55167
p1399
g6
sV103729
p1400
g2
sV110626
p1401
g2
sV3199
p1402
g2
s.