(dp0
V3341
p1
S'R'
p2
sV212
p3
S'L'
p4
sV3277
p5
g4
sV1922
p6
g4
sV1907
p7
g4
sV2943
p8
g4
sV2941
p9
g4
sV3386
p10
g2
sV3471
p11
g2
sV1616
p12
g2
sV2302
p13
g4
sV798
p14
g2
sV1371
p15
g4
sV1659
p16
g4
sV2662
p17
g2
sV2249
p18
g2
sV2175
p19
g4
sV933
p20
g2
sV1033
p21
g2
sV2070
p22
g2
sV1753
p23
g4
sV892
p24
g4
sV2724
p25
g4
sV3136
p26
g4
sV1936
p27
g2
sV71
p28
g4
sV1869
p29
g2
sV389
p30
g4
sV3339
p31
g4
sV3312
p32
g2
sV2974
p33
g4
sV1627
p34
g4
sV1977
p35
g2
sV2577
p36
g2
sV2575
p37
g4
sV3034
p38
g2
sV2538
p39
g4
sV1745
p40
g2
sV1746
p41
g2
sV1570
p42
g4
sV3199
p43
g4
s.